
/workspaces/veri_nutty/riscv-arch-test/work/rv32i_m/I/add-01.elf:     file format elf32-littleriscv


Disassembly of section .text.init:

00000000 <rvtest_entry_point>:
       0:	80005297          	auipc	t0,0x80005
       4:	cc828293          	addi	t0,t0,-824 # 80004cc8 <_data_strings+0x0>
       8:	80001317          	auipc	t1,0x80001
       c:	cfc30313          	addi	t1,t1,-772 # 80000d04 <_data_strings+0xffffc03c>
      10:	80001397          	auipc	t2,0x80001
      14:	cf438393          	addi	t2,t2,-780 # 80000d04 <_data_strings+0xffffc03c>

00000018 <load_data_string>:
      18:	0002ae03          	lw	t3,0(t0)
      1c:	01c32023          	sw	t3,0(t1)
      20:	00428293          	addi	t0,t0,4
      24:	00430313          	addi	t1,t1,4
      28:	fe7368e3          	bltu	t1,t2,18 <load_data_string>
      2c:	00003297          	auipc	t0,0x3
      30:	39c28293          	addi	t0,t0,924 # 33c8 <_data_lma>
      34:	80000317          	auipc	t1,0x80000
      38:	0d430313          	addi	t1,t1,212 # 80000108 <_data_strings+0xffffb440>
      3c:	80001397          	auipc	t2,0x80001
      40:	cc838393          	addi	t2,t2,-824 # 80000d04 <_data_strings+0xffffc03c>

00000044 <load_data_loop>:
      44:	0002ae03          	lw	t3,0(t0)
      48:	01c32023          	sw	t3,0(t1)
      4c:	00428293          	addi	t0,t0,4
      50:	00430313          	addi	t1,t1,4
      54:	fe7368e3          	bltu	t1,t2,44 <load_data_loop>
      58:	00000013          	nop
      5c:	00000013          	nop

00000060 <rvtest_init>:
      60:	feedc0b7          	lui	ra,0xfeedc
      64:	ead08093          	addi	ra,ra,-339 # feedbead <_data_strings+0x7eed71e5>
      68:	ff76e137          	lui	sp,0xff76e
      6c:	f5610113          	addi	sp,sp,-170 # ff76df56 <_data_strings+0x7f76928e>
      70:	7fbb71b7          	lui	gp,0x7fbb7
      74:	fab18193          	addi	gp,gp,-85 # 7fbb6fab <_data_lma+0x7fbb3be3>
      78:	bfddb237          	lui	tp,0xbfddb
      7c:	7d520213          	addi	tp,tp,2005 # bfddb7d5 <_data_strings+0x3fdd6b0d>
      80:	00000297          	auipc	t0,0x0
      84:	0d828293          	addi	t0,t0,216 # 158 <rvtest_code_begin>
      88:	80000317          	auipc	t1,0x80000
      8c:	17830313          	addi	t1,t1,376 # 80000200 <_data_strings+0xffffb538>
      90:	b7fbb3b7          	lui	t2,0xb7fbb
      94:	6fa38393          	addi	t2,t2,1786 # b7fbb6fa <_data_strings+0x37fb6a32>
      98:	5bfde437          	lui	s0,0x5bfde
      9c:	b7d40413          	addi	s0,s0,-1155 # 5bfddb7d <_data_lma+0x5bfda7b5>
      a0:	adfef4b7          	lui	s1,0xadfef
      a4:	dbe48493          	addi	s1,s1,-578 # adfeedbe <_data_strings+0x2dfea0f6>
      a8:	56ff7537          	lui	a0,0x56ff7
      ac:	6df50513          	addi	a0,a0,1759 # 56ff76df <_data_lma+0x56ff4317>
      b0:	ab7fc5b7          	lui	a1,0xab7fc
      b4:	b6f58593          	addi	a1,a1,-1169 # ab7fbb6f <_data_strings+0x2b7f6ea7>
      b8:	d5bfe637          	lui	a2,0xd5bfe
      bc:	db760613          	addi	a2,a2,-585 # d5bfddb7 <_data_strings+0x55bf90ef>
      c0:	eadff6b7          	lui	a3,0xeadff
      c4:	edb68693          	addi	a3,a3,-293 # eadfeedb <_data_strings+0x6adfa213>
      c8:	f56ff737          	lui	a4,0xf56ff
      cc:	76d70713          	addi	a4,a4,1901 # f56ff76d <_data_strings+0x756faaa5>
      d0:	fab807b7          	lui	a5,0xfab80
      d4:	bb678793          	addi	a5,a5,-1098 # fab7fbb6 <_data_strings+0x7ab7aeee>
      d8:	7d5c0837          	lui	a6,0x7d5c0
      dc:	ddb80813          	addi	a6,a6,-549 # 7d5bfddb <_data_lma+0x7d5bca13>
      e0:	beae08b7          	lui	a7,0xbeae0
      e4:	eed88893          	addi	a7,a7,-275 # beadfeed <_data_strings+0x3eadb225>
      e8:	df570937          	lui	s2,0xdf570
      ec:	f7690913          	addi	s2,s2,-138 # df56ff76 <_data_strings+0x5f56b2ae>
      f0:	6fab89b7          	lui	s3,0x6fab8
      f4:	fbb98993          	addi	s3,s3,-69 # 6fab7fbb <_data_lma+0x6fab4bf3>
      f8:	b7d5ca37          	lui	s4,0xb7d5c
      fc:	fdda0a13          	addi	s4,s4,-35 # b7d5bfdd <_data_strings+0x37d57315>
     100:	dbeaeab7          	lui	s5,0xdbeae
     104:	feea8a93          	addi	s5,s5,-18 # dbeadfee <_data_strings+0x5bea9326>
     108:	6df57b37          	lui	s6,0x6df57
     10c:	ff7b0b13          	addi	s6,s6,-9 # 6df56ff7 <_data_lma+0x6df53c2f>
     110:	b6fabbb7          	lui	s7,0xb6fab
     114:	7fbb8b93          	addi	s7,s7,2043 # b6fab7fb <_data_strings+0x36fa6b33>
     118:	db7d6c37          	lui	s8,0xdb7d6
     11c:	bfdc0c13          	addi	s8,s8,-1027 # db7d5bfd <_data_strings+0x5b7d0f35>
     120:	edbebcb7          	lui	s9,0xedbeb
     124:	dfec8c93          	addi	s9,s9,-514 # edbeadfe <_data_strings+0x6dbe6136>
     128:	76df5d37          	lui	s10,0x76df5
     12c:	6ffd0d13          	addi	s10,s10,1791 # 76df56ff <_data_lma+0x76df2337>
     130:	bb6fbdb7          	lui	s11,0xbb6fb
     134:	b7fd8d93          	addi	s11,s11,-1153 # bb6fab7f <_data_strings+0x3b6f5eb7>
     138:	ddb7de37          	lui	t3,0xddb7d
     13c:	5bfe0e13          	addi	t3,t3,1471 # ddb7d5bf <_data_strings+0x5db788f7>
     140:	eedbfeb7          	lui	t4,0xeedbf
     144:	adfe8e93          	addi	t4,t4,-1313 # eedbeadf <_data_strings+0x6edb9e17>
     148:	f76dff37          	lui	t5,0xf76df
     14c:	56ff0f13          	addi	t5,t5,1391 # f76df56f <_data_strings+0x776da8a7>
     150:	fbb70fb7          	lui	t6,0xfbb70
     154:	ab7f8f93          	addi	t6,t6,-1353 # fbb6fab7 <_data_strings+0x7bb6adef>

00000158 <rvtest_code_begin>:
     158:	80000197          	auipc	gp,0x80000
     15c:	0b818193          	addi	gp,gp,184 # 80000210 <_data_strings+0xffffb548>

00000160 <inst_0>:
     160:	80000237          	lui	tp,0x80000
     164:	fff20213          	addi	tp,tp,-1 # 7fffffff <_data_strings+0xffffb337>
     168:	00100c13          	li	s8,1
     16c:	01820c33          	add	s8,tp,s8
     170:	0181a023          	sw	s8,0(gp)

00000174 <inst_1>:
     174:	00020537          	lui	a0,0x20
     178:	00020537          	lui	a0,0x20
     17c:	00a50e33          	add	t3,a0,a0
     180:	01c1a223          	sw	t3,4(gp)

00000184 <inst_2>:
     184:	ff000ab7          	lui	s5,0xff000
     188:	fffa8a93          	addi	s5,s5,-1 # feffffff <_data_strings+0x7effb337>
     18c:	ff000ab7          	lui	s5,0xff000
     190:	fffa8a93          	addi	s5,s5,-1 # feffffff <_data_strings+0x7effb337>
     194:	015a8ab3          	add	s5,s5,s5
     198:	0151a423          	sw	s5,8(gp)

0000019c <inst_3>:
     19c:	ffe00b13          	li	s6,-2
     1a0:	00040fb7          	lui	t6,0x40
     1a4:	01fb0b33          	add	s6,s6,t6
     1a8:	0161a623          	sw	s6,12(gp)

000001ac <inst_4>:
     1ac:	55555637          	lui	a2,0x55555
     1b0:	55660613          	addi	a2,a2,1366 # 55555556 <_data_lma+0x5555218e>
     1b4:	55555337          	lui	t1,0x55555
     1b8:	55630313          	addi	t1,t1,1366 # 55555556 <_data_lma+0x5555218e>
     1bc:	006605b3          	add	a1,a2,t1
     1c0:	00b1a823          	sw	a1,16(gp)

000001c4 <inst_5>:
     1c4:	00200e93          	li	t4,2
     1c8:	800006b7          	lui	a3,0x80000
     1cc:	00de8533          	add	a0,t4,a3
     1d0:	00a1aa23          	sw	a0,20(gp)

000001d4 <inst_6>:
     1d4:	fef00f93          	li	t6,-17
     1d8:	00000293          	li	t0,0
     1dc:	005f8d33          	add	s10,t6,t0
     1e0:	01a1ac23          	sw	s10,24(gp)

000001e4 <inst_7>:
     1e4:	66666137          	lui	sp,0x66666
     1e8:	66610113          	addi	sp,sp,1638 # 66666666 <_data_lma+0x6666329e>
     1ec:	800000b7          	lui	ra,0x80000
     1f0:	fff08093          	addi	ra,ra,-1 # 7fffffff <_data_strings+0xffffb337>
     1f4:	001103b3          	add	t2,sp,ra
     1f8:	0071ae23          	sw	t2,28(gp)

000001fc <inst_8>:
     1fc:	80000437          	lui	s0,0x80000
     200:	aaaabcb7          	lui	s9,0xaaaab
     204:	aaac8c93          	addi	s9,s9,-1366 # aaaaaaaa <_data_strings+0x2aaa5de2>
     208:	01940733          	add	a4,s0,s9
     20c:	02e1a023          	sw	a4,32(gp)

00000210 <inst_9>:
     210:	00000693          	li	a3,0
     214:	fe000437          	lui	s0,0xfe000
     218:	fff40413          	addi	s0,s0,-1 # fdffffff <_data_strings+0x7dffb337>
     21c:	008680b3          	add	ra,a3,s0
     220:	0211a223          	sw	ra,36(gp)

00000224 <inst_10>:
     224:	00100e13          	li	t3,1
     228:	008004b7          	lui	s1,0x800
     22c:	009e0033          	add	zero,t3,s1
     230:	0201a423          	sw	zero,40(gp)

00000234 <inst_11>:
     234:	00700713          	li	a4,7
     238:	00200213          	li	tp,2
     23c:	00470a33          	add	s4,a4,tp
     240:	0341a623          	sw	s4,44(gp)

00000244 <inst_12>:
     244:	00800393          	li	t2,8
     248:	00400993          	li	s3,4
     24c:	01338833          	add	a6,t2,s3
     250:	0301a823          	sw	a6,48(gp)

00000254 <inst_13>:
     254:	00001bb7          	lui	s7,0x1
     258:	800b8b93          	addi	s7,s7,-2048 # 800 <inst_88+0x4>
     25c:	00800e93          	li	t4,8
     260:	01db8433          	add	s0,s7,t4
     264:	0281aa23          	sw	s0,52(gp)

00000268 <inst_14>:
     268:	00000293          	li	t0,0
     26c:	01000d93          	li	s11,16
     270:	01b286b3          	add	a3,t0,s11
     274:	02d1ac23          	sw	a3,56(gp)

00000278 <inst_15>:
     278:	55555cb7          	lui	s9,0x55555
     27c:	556c8c93          	addi	s9,s9,1366 # 55555556 <_data_lma+0x5555218e>
     280:	02000a13          	li	s4,32
     284:	014c8db3          	add	s11,s9,s4
     288:	03b1ae23          	sw	s11,60(gp)

0000028c <inst_16>:
     28c:	fef00793          	li	a5,-17
     290:	04000d13          	li	s10,64
     294:	01a788b3          	add	a7,a5,s10
     298:	0511a023          	sw	a7,64(gp)
     29c:	80000417          	auipc	s0,0x80000
     2a0:	fb840413          	addi	s0,s0,-72 # 80000254 <_data_strings+0xffffb58c>

000002a4 <inst_17>:
     2a4:	ffb00893          	li	a7,-5
     2a8:	08000113          	li	sp,128
     2ac:	00288eb3          	add	t4,a7,sp
     2b0:	01d42023          	sw	t4,0(s0)

000002b4 <inst_18>:
     2b4:	02000c13          	li	s8,32
     2b8:	10000893          	li	a7,256
     2bc:	011c0233          	add	tp,s8,a7
     2c0:	00442223          	sw	tp,4(s0)

000002c4 <inst_19>:
     2c4:	40000837          	lui	a6,0x40000
     2c8:	20000593          	li	a1,512
     2cc:	00b80133          	add	sp,a6,a1
     2d0:	00242423          	sw	sp,8(s0)

000002d4 <inst_20>:
     2d4:	00000013          	nop
     2d8:	40000813          	li	a6,1024
     2dc:	01000333          	add	t1,zero,a6
     2e0:	00642623          	sw	t1,12(s0)

000002e4 <inst_21>:
     2e4:	aaaab5b7          	lui	a1,0xaaaab
     2e8:	aab58593          	addi	a1,a1,-1365 # aaaaaaab <_data_strings+0x2aaa5de3>
     2ec:	000011b7          	lui	gp,0x1
     2f0:	80018193          	addi	gp,gp,-2048 # 800 <inst_88+0x4>
     2f4:	00358fb3          	add	t6,a1,gp
     2f8:	01f42823          	sw	t6,16(s0)

000002fc <inst_22>:
     2fc:	00400913          	li	s2,4
     300:	00000013          	nop
     304:	00090633          	add	a2,s2,zero
     308:	00c42a23          	sw	a2,20(s0)

0000030c <inst_23>:
     30c:	fe000f37          	lui	t5,0xfe000
     310:	ffff0f13          	addi	t5,t5,-1 # fdffffff <_data_strings+0x7dffb337>
     314:	000023b7          	lui	t2,0x2
     318:	007f04b3          	add	s1,t5,t2
     31c:	00942c23          	sw	s1,24(s0)

00000320 <inst_24>:
     320:	0000b1b7          	lui	gp,0xb
     324:	50318193          	addi	gp,gp,1283 # b503 <_data_lma+0x813b>
     328:	00004f37          	lui	t5,0x4
     32c:	01e182b3          	add	t0,gp,t5
     330:	00542e23          	sw	t0,28(s0)

00000334 <inst_25>:
     334:	ffff5db7          	lui	s11,0xffff5
     338:	afdd8d93          	addi	s11,s11,-1283 # ffff4afd <_data_strings+0x7ffefe35>
     33c:	00008e37          	lui	t3,0x8
     340:	01cd8933          	add	s2,s11,t3
     344:	03242023          	sw	s2,32(s0)

00000348 <inst_26>:
     348:	dff00493          	li	s1,-513
     34c:	00010737          	lui	a4,0x10
     350:	00e487b3          	add	a5,s1,a4
     354:	02f42223          	sw	a5,36(s0)

00000358 <inst_27>:
     358:	04000d13          	li	s10,64
     35c:	000207b7          	lui	a5,0x20
     360:	00fd01b3          	add	gp,s10,a5
     364:	02342423          	sw	gp,40(s0)

00000368 <inst_28>:
     368:	00300093          	li	ra,3
     36c:	00080937          	lui	s2,0x80
     370:	01208bb3          	add	s7,ra,s2
     374:	03742623          	sw	s7,44(s0)

00000378 <inst_29>:
     378:	ffff0337          	lui	t1,0xffff0
     37c:	fff30313          	addi	t1,t1,-1 # fffeffff <_data_strings+0x7ffeb337>
     380:	00100637          	lui	a2,0x100
     384:	00c30f33          	add	t5,t1,a2
     388:	03e42823          	sw	t5,48(s0)

0000038c <inst_30>:
     38c:	ffc00a37          	lui	s4,0xffc00
     390:	fffa0a13          	addi	s4,s4,-1 # ffbfffff <_data_strings+0x7fbfb337>
     394:	00200b37          	lui	s6,0x200
     398:	016a09b3          	add	s3,s4,s6
     39c:	03342a23          	sw	s3,52(s0)

000003a0 <inst_31>:
     3a0:	004009b7          	lui	s3,0x400
     3a4:	00400bb7          	lui	s7,0x400
     3a8:	01798cb3          	add	s9,s3,s7
     3ac:	03942c23          	sw	s9,56(s0)

000003b0 <inst_32>:
     3b0:	ffff5537          	lui	a0,0xffff5
     3b4:	afd50513          	addi	a0,a0,-1283 # ffff4afd <_data_strings+0x7ffefe35>
     3b8:	010005b7          	lui	a1,0x1000
     3bc:	00b50633          	add	a2,a0,a1
     3c0:	02c42e23          	sw	a2,60(s0)
     3c4:	80000097          	auipc	ra,0x80000
     3c8:	ed008093          	addi	ra,ra,-304 # 80000294 <_data_strings+0xffffb5cc>

000003cc <inst_33>:
     3cc:	fffe0537          	lui	a0,0xfffe0
     3d0:	fff50513          	addi	a0,a0,-1 # fffdffff <_data_strings+0x7ffdb337>
     3d4:	020005b7          	lui	a1,0x2000
     3d8:	00b50633          	add	a2,a0,a1
     3dc:	00c0a023          	sw	a2,0(ra)

000003e0 <inst_34>:
     3e0:	00000513          	li	a0,0
     3e4:	040005b7          	lui	a1,0x4000
     3e8:	00b50633          	add	a2,a0,a1
     3ec:	00c0a223          	sw	a2,4(ra)

000003f0 <inst_35>:
     3f0:	ffff8537          	lui	a0,0xffff8
     3f4:	fff50513          	addi	a0,a0,-1 # ffff7fff <_data_strings+0x7fff3337>
     3f8:	080005b7          	lui	a1,0x8000
     3fc:	00b50633          	add	a2,a0,a1
     400:	00c0a423          	sw	a2,8(ra)

00000404 <inst_36>:
     404:	40000537          	lui	a0,0x40000
     408:	100005b7          	lui	a1,0x10000
     40c:	00b50633          	add	a2,a0,a1
     410:	00c0a623          	sw	a2,12(ra)

00000414 <inst_37>:
     414:	ffffc537          	lui	a0,0xffffc
     418:	fff50513          	addi	a0,a0,-1 # ffffbfff <_data_strings+0x7fff7337>
     41c:	200005b7          	lui	a1,0x20000
     420:	00b50633          	add	a2,a0,a1
     424:	00c0a823          	sw	a2,16(ra)

00000428 <inst_38>:
     428:	00010537          	lui	a0,0x10
     42c:	400005b7          	lui	a1,0x40000
     430:	00b50633          	add	a2,a0,a1
     434:	00c0aa23          	sw	a2,20(ra)

00000438 <inst_39>:
     438:	00400513          	li	a0,4
     43c:	ffe00593          	li	a1,-2
     440:	00b50633          	add	a2,a0,a1
     444:	00c0ac23          	sw	a2,24(ra)

00000448 <inst_40>:
     448:	fdf00513          	li	a0,-33
     44c:	ffd00593          	li	a1,-3
     450:	00b50633          	add	a2,a0,a1
     454:	00c0ae23          	sw	a2,28(ra)

00000458 <inst_41>:
     458:	fdf00513          	li	a0,-33
     45c:	ffb00593          	li	a1,-5
     460:	00b50633          	add	a2,a0,a1
     464:	02c0a023          	sw	a2,32(ra)

00000468 <inst_42>:
     468:	fffe0537          	lui	a0,0xfffe0
     46c:	fff50513          	addi	a0,a0,-1 # fffdffff <_data_strings+0x7ffdb337>
     470:	ff700593          	li	a1,-9
     474:	00b50633          	add	a2,a0,a1
     478:	02c0a223          	sw	a2,36(ra)

0000047c <inst_43>:
     47c:	00001537          	lui	a0,0x1
     480:	80050513          	addi	a0,a0,-2048 # 800 <inst_88+0x4>
     484:	fef00593          	li	a1,-17
     488:	00b50633          	add	a2,a0,a1
     48c:	02c0a423          	sw	a2,40(ra)

00000490 <inst_44>:
     490:	20000537          	lui	a0,0x20000
     494:	fdf00593          	li	a1,-33
     498:	00b50633          	add	a2,a0,a1
     49c:	02c0a623          	sw	a2,44(ra)

000004a0 <inst_45>:
     4a0:	80000537          	lui	a0,0x80000
     4a4:	fff50513          	addi	a0,a0,-1 # 7fffffff <_data_strings+0xffffb337>
     4a8:	fbf00593          	li	a1,-65
     4ac:	00b50633          	add	a2,a0,a1
     4b0:	02c0a823          	sw	a2,48(ra)

000004b4 <inst_46>:
     4b4:	ff800537          	lui	a0,0xff800
     4b8:	fff50513          	addi	a0,a0,-1 # ff7fffff <_data_strings+0x7f7fb337>
     4bc:	f7f00593          	li	a1,-129
     4c0:	00b50633          	add	a2,a0,a1
     4c4:	02c0aa23          	sw	a2,52(ra)

000004c8 <inst_47>:
     4c8:	ffff5537          	lui	a0,0xffff5
     4cc:	afc50513          	addi	a0,a0,-1284 # ffff4afc <_data_strings+0x7ffefe34>
     4d0:	dff00593          	li	a1,-513
     4d4:	00b50633          	add	a2,a0,a1
     4d8:	02c0ac23          	sw	a2,56(ra)

000004dc <inst_48>:
     4dc:	fffff537          	lui	a0,0xfffff
     4e0:	fff50513          	addi	a0,a0,-1 # ffffefff <_data_strings+0x7fffa337>
     4e4:	bff00593          	li	a1,-1025
     4e8:	00b50633          	add	a2,a0,a1
     4ec:	02c0ae23          	sw	a2,60(ra)

000004f0 <inst_49>:
     4f0:	00400513          	li	a0,4
     4f4:	fffff5b7          	lui	a1,0xfffff
     4f8:	7ff58593          	addi	a1,a1,2047 # fffff7ff <_data_strings+0x7fffab37>
     4fc:	00b50633          	add	a2,a0,a1
     500:	04c0a023          	sw	a2,64(ra)

00000504 <inst_50>:
     504:	ffff5537          	lui	a0,0xffff5
     508:	afd50513          	addi	a0,a0,-1283 # ffff4afd <_data_strings+0x7ffefe35>
     50c:	fffff5b7          	lui	a1,0xfffff
     510:	fff58593          	addi	a1,a1,-1 # ffffefff <_data_strings+0x7fffa337>
     514:	00b50633          	add	a2,a0,a1
     518:	04c0a223          	sw	a2,68(ra)

0000051c <inst_51>:
     51c:	0000b537          	lui	a0,0xb
     520:	50450513          	addi	a0,a0,1284 # b504 <_data_lma+0x813c>
     524:	ffffe5b7          	lui	a1,0xffffe
     528:	fff58593          	addi	a1,a1,-1 # ffffdfff <_data_strings+0x7fff9337>
     52c:	00b50633          	add	a2,a0,a1
     530:	04c0a423          	sw	a2,72(ra)

00000534 <inst_52>:
     534:	80000537          	lui	a0,0x80000
     538:	fff50513          	addi	a0,a0,-1 # 7fffffff <_data_strings+0xffffb337>
     53c:	ffffc5b7          	lui	a1,0xffffc
     540:	fff58593          	addi	a1,a1,-1 # ffffbfff <_data_strings+0x7fff7337>
     544:	00b50633          	add	a2,a0,a1
     548:	04c0a623          	sw	a2,76(ra)

0000054c <inst_53>:
     54c:	ffd00513          	li	a0,-3
     550:	ffff85b7          	lui	a1,0xffff8
     554:	fff58593          	addi	a1,a1,-1 # ffff7fff <_data_strings+0x7fff3337>
     558:	00b50633          	add	a2,a0,a1
     55c:	04c0a823          	sw	a2,80(ra)

00000560 <inst_54>:
     560:	0000b537          	lui	a0,0xb
     564:	50350513          	addi	a0,a0,1283 # b503 <_data_lma+0x813b>
     568:	ffff05b7          	lui	a1,0xffff0
     56c:	fff58593          	addi	a1,a1,-1 # fffeffff <_data_strings+0x7ffeb337>
     570:	00b50633          	add	a2,a0,a1
     574:	04c0aa23          	sw	a2,84(ra)

00000578 <inst_55>:
     578:	aaaab537          	lui	a0,0xaaaab
     57c:	aaa50513          	addi	a0,a0,-1366 # aaaaaaaa <_data_strings+0x2aaa5de2>
     580:	fffe05b7          	lui	a1,0xfffe0
     584:	fff58593          	addi	a1,a1,-1 # fffdffff <_data_strings+0x7ffdb337>
     588:	00b50633          	add	a2,a0,a1
     58c:	04c0ac23          	sw	a2,88(ra)

00000590 <inst_56>:
     590:	01000537          	lui	a0,0x1000
     594:	fffc05b7          	lui	a1,0xfffc0
     598:	fff58593          	addi	a1,a1,-1 # fffbffff <_data_strings+0x7ffbb337>
     59c:	00b50633          	add	a2,a0,a1
     5a0:	04c0ae23          	sw	a2,92(ra)

000005a4 <inst_57>:
     5a4:	80000537          	lui	a0,0x80000
     5a8:	fff50513          	addi	a0,a0,-1 # 7fffffff <_data_strings+0xffffb337>
     5ac:	fff805b7          	lui	a1,0xfff80
     5b0:	fff58593          	addi	a1,a1,-1 # fff7ffff <_data_strings+0x7ff7b337>
     5b4:	00b50633          	add	a2,a0,a1
     5b8:	06c0a023          	sw	a2,96(ra)

000005bc <inst_58>:
     5bc:	00001537          	lui	a0,0x1
     5c0:	80050513          	addi	a0,a0,-2048 # 800 <inst_88+0x4>
     5c4:	fff005b7          	lui	a1,0xfff00
     5c8:	fff58593          	addi	a1,a1,-1 # ffefffff <_data_strings+0x7fefb337>
     5cc:	00b50633          	add	a2,a0,a1
     5d0:	06c0a223          	sw	a2,100(ra)

000005d4 <inst_59>:
     5d4:	00800513          	li	a0,8
     5d8:	ffe005b7          	lui	a1,0xffe00
     5dc:	fff58593          	addi	a1,a1,-1 # ffdfffff <_data_strings+0x7fdfb337>
     5e0:	00b50633          	add	a2,a0,a1
     5e4:	06c0a423          	sw	a2,104(ra)

000005e8 <inst_60>:
     5e8:	00002537          	lui	a0,0x2
     5ec:	ffc005b7          	lui	a1,0xffc00
     5f0:	fff58593          	addi	a1,a1,-1 # ffbfffff <_data_strings+0x7fbfb337>
     5f4:	00b50633          	add	a2,a0,a1
     5f8:	06c0a623          	sw	a2,108(ra)

000005fc <inst_61>:
     5fc:	fdf00513          	li	a0,-33
     600:	ff8005b7          	lui	a1,0xff800
     604:	fff58593          	addi	a1,a1,-1 # ff7fffff <_data_strings+0x7f7fb337>
     608:	00b50633          	add	a2,a0,a1
     60c:	06c0a823          	sw	a2,112(ra)

00000610 <inst_62>:
     610:	ffe00537          	lui	a0,0xffe00
     614:	fff50513          	addi	a0,a0,-1 # ffdfffff <_data_strings+0x7fdfb337>
     618:	ff0005b7          	lui	a1,0xff000
     61c:	fff58593          	addi	a1,a1,-1 # feffffff <_data_strings+0x7effb337>
     620:	00b50633          	add	a2,a0,a1
     624:	06c0aa23          	sw	a2,116(ra)

00000628 <inst_63>:
     628:	00200513          	li	a0,2
     62c:	fc0005b7          	lui	a1,0xfc000
     630:	fff58593          	addi	a1,a1,-1 # fbffffff <_data_strings+0x7bffb337>
     634:	00b50633          	add	a2,a0,a1
     638:	06c0ac23          	sw	a2,120(ra)

0000063c <inst_64>:
     63c:	55555537          	lui	a0,0x55555
     640:	55550513          	addi	a0,a0,1365 # 55555555 <_data_lma+0x5555218d>
     644:	f80005b7          	lui	a1,0xf8000
     648:	fff58593          	addi	a1,a1,-1 # f7ffffff <_data_strings+0x77ffb337>
     64c:	00b50633          	add	a2,a0,a1
     650:	06c0ae23          	sw	a2,124(ra)

00000654 <inst_65>:
     654:	00020537          	lui	a0,0x20
     658:	f00005b7          	lui	a1,0xf0000
     65c:	fff58593          	addi	a1,a1,-1 # efffffff <_data_strings+0x6fffb337>
     660:	00b50633          	add	a2,a0,a1
     664:	08c0a023          	sw	a2,128(ra)

00000668 <inst_66>:
     668:	00020537          	lui	a0,0x20
     66c:	e00005b7          	lui	a1,0xe0000
     670:	fff58593          	addi	a1,a1,-1 # dfffffff <_data_strings+0x5fffb337>
     674:	00b50633          	add	a2,a0,a1
     678:	08c0a223          	sw	a2,132(ra)

0000067c <inst_67>:
     67c:	00700513          	li	a0,7
     680:	c00005b7          	lui	a1,0xc0000
     684:	fff58593          	addi	a1,a1,-1 # bfffffff <_data_strings+0x3fffb337>
     688:	00b50633          	add	a2,a0,a1
     68c:	08c0a423          	sw	a2,136(ra)

00000690 <inst_68>:
     690:	00100537          	lui	a0,0x100
     694:	555555b7          	lui	a1,0x55555
     698:	55558593          	addi	a1,a1,1365 # 55555555 <_data_lma+0x5555218d>
     69c:	00b50633          	add	a2,a0,a1
     6a0:	08c0a623          	sw	a2,140(ra)

000006a4 <inst_69>:
     6a4:	01000513          	li	a0,16
     6a8:	333335b7          	lui	a1,0x33333
     6ac:	33358593          	addi	a1,a1,819 # 33333333 <_data_lma+0x3332ff6b>
     6b0:	00b50633          	add	a2,a0,a1
     6b4:	08c0a823          	sw	a2,144(ra)

000006b8 <inst_70>:
     6b8:	08000513          	li	a0,128
     6bc:	333335b7          	lui	a1,0x33333
     6c0:	33258593          	addi	a1,a1,818 # 33333332 <_data_lma+0x3332ff6a>
     6c4:	00b50633          	add	a2,a0,a1
     6c8:	08c0aa23          	sw	a2,148(ra)

000006cc <inst_71>:
     6cc:	10000513          	li	a0,256
     6d0:	ff600593          	li	a1,-10
     6d4:	00b50633          	add	a2,a0,a1
     6d8:	08c0ac23          	sw	a2,152(ra)

000006dc <inst_72>:
     6dc:	20000513          	li	a0,512
     6e0:	ffff55b7          	lui	a1,0xffff5
     6e4:	afd58593          	addi	a1,a1,-1283 # ffff4afd <_data_strings+0x7ffefe35>
     6e8:	00b50633          	add	a2,a0,a1
     6ec:	08c0ae23          	sw	a2,156(ra)

000006f0 <inst_73>:
     6f0:	40000513          	li	a0,1024
     6f4:	555555b7          	lui	a1,0x55555
     6f8:	55558593          	addi	a1,a1,1365 # 55555555 <_data_lma+0x5555218d>
     6fc:	00b50633          	add	a2,a0,a1
     700:	0ac0a023          	sw	a2,160(ra)

00000704 <inst_74>:
     704:	00001537          	lui	a0,0x1
     708:	00500593          	li	a1,5
     70c:	00b50633          	add	a2,a0,a1
     710:	0ac0a223          	sw	a2,164(ra)

00000714 <inst_75>:
     714:	00004537          	lui	a0,0x4
     718:	fffff5b7          	lui	a1,0xfffff
     71c:	7ff58593          	addi	a1,a1,2047 # fffff7ff <_data_strings+0x7fffab37>
     720:	00b50633          	add	a2,a0,a1
     724:	0ac0a423          	sw	a2,168(ra)

00000728 <inst_76>:
     728:	00008537          	lui	a0,0x8
     72c:	ff0005b7          	lui	a1,0xff000
     730:	fff58593          	addi	a1,a1,-1 # feffffff <_data_strings+0x7effb337>
     734:	00b50633          	add	a2,a0,a1
     738:	0ac0a623          	sw	a2,172(ra)

0000073c <inst_77>:
     73c:	00040537          	lui	a0,0x40
     740:	010005b7          	lui	a1,0x1000
     744:	00b50633          	add	a2,a0,a1
     748:	0ac0a823          	sw	a2,176(ra)

0000074c <inst_78>:
     74c:	00080537          	lui	a0,0x80
     750:	000085b7          	lui	a1,0x8
     754:	00b50633          	add	a2,a0,a1
     758:	0ac0aa23          	sw	a2,180(ra)

0000075c <inst_79>:
     75c:	00200537          	lui	a0,0x200
     760:	100005b7          	lui	a1,0x10000
     764:	00b50633          	add	a2,a0,a1
     768:	0ac0ac23          	sw	a2,184(ra)

0000076c <inst_80>:
     76c:	00800537          	lui	a0,0x800
     770:	bff00593          	li	a1,-1025
     774:	00b50633          	add	a2,a0,a1
     778:	0ac0ae23          	sw	a2,188(ra)

0000077c <inst_81>:
     77c:	02000537          	lui	a0,0x2000
     780:	555555b7          	lui	a1,0x55555
     784:	55558593          	addi	a1,a1,1365 # 55555555 <_data_lma+0x5555218d>
     788:	00b50633          	add	a2,a0,a1
     78c:	0cc0a023          	sw	a2,192(ra)

00000790 <inst_82>:
     790:	04000537          	lui	a0,0x4000
     794:	000085b7          	lui	a1,0x8
     798:	00b50633          	add	a2,a0,a1
     79c:	0cc0a223          	sw	a2,196(ra)

000007a0 <inst_83>:
     7a0:	08000537          	lui	a0,0x8000
     7a4:	333335b7          	lui	a1,0x33333
     7a8:	33258593          	addi	a1,a1,818 # 33333332 <_data_lma+0x3332ff6a>
     7ac:	00b50633          	add	a2,a0,a1
     7b0:	0cc0a423          	sw	a2,200(ra)

000007b4 <inst_84>:
     7b4:	10000537          	lui	a0,0x10000
     7b8:	c00005b7          	lui	a1,0xc0000
     7bc:	00b50633          	add	a2,a0,a1
     7c0:	0cc0a623          	sw	a2,204(ra)

000007c4 <inst_85>:
     7c4:	ff700513          	li	a0,-9
     7c8:	fff805b7          	lui	a1,0xfff80
     7cc:	fff58593          	addi	a1,a1,-1 # fff7ffff <_data_strings+0x7ff7b337>
     7d0:	00b50633          	add	a2,a0,a1
     7d4:	0cc0a823          	sw	a2,208(ra)

000007d8 <inst_86>:
     7d8:	fbf00513          	li	a0,-65
     7dc:	800005b7          	lui	a1,0x80000
     7e0:	00b50633          	add	a2,a0,a1
     7e4:	0cc0aa23          	sw	a2,212(ra)

000007e8 <inst_87>:
     7e8:	f7f00513          	li	a0,-129
     7ec:	aaaab5b7          	lui	a1,0xaaaab
     7f0:	aaa58593          	addi	a1,a1,-1366 # aaaaaaaa <_data_strings+0x2aaa5de2>
     7f4:	00b50633          	add	a2,a0,a1
     7f8:	0cc0ac23          	sw	a2,216(ra)

000007fc <inst_88>:
     7fc:	eff00513          	li	a0,-257
     800:	00300593          	li	a1,3
     804:	00b50633          	add	a2,a0,a1
     808:	0cc0ae23          	sw	a2,220(ra)

0000080c <inst_89>:
     80c:	bff00513          	li	a0,-1025
     810:	ff800593          	li	a1,-8
     814:	00b50633          	add	a2,a0,a1
     818:	0ec0a023          	sw	a2,224(ra)

0000081c <inst_90>:
     81c:	fffff537          	lui	a0,0xfffff
     820:	7ff50513          	addi	a0,a0,2047 # fffff7ff <_data_strings+0x7fffab37>
     824:	00300593          	li	a1,3
     828:	00b50633          	add	a2,a0,a1
     82c:	0ec0a223          	sw	a2,228(ra)

00000830 <inst_91>:
     830:	ffffe537          	lui	a0,0xffffe
     834:	fff50513          	addi	a0,a0,-1 # ffffdfff <_data_strings+0x7fff9337>
     838:	00200593          	li	a1,2
     83c:	00b50633          	add	a2,a0,a1
     840:	0ec0a423          	sw	a2,232(ra)

00000844 <inst_92>:
     844:	fffc0537          	lui	a0,0xfffc0
     848:	fff50513          	addi	a0,a0,-1 # fffbffff <_data_strings+0x7ffbb337>
     84c:	ff8005b7          	lui	a1,0xff800
     850:	fff58593          	addi	a1,a1,-1 # ff7fffff <_data_strings+0x7f7fb337>
     854:	00b50633          	add	a2,a0,a1
     858:	0ec0a623          	sw	a2,236(ra)

0000085c <inst_93>:
     85c:	fff80537          	lui	a0,0xfff80
     860:	fff50513          	addi	a0,a0,-1 # fff7ffff <_data_strings+0x7ff7b337>
     864:	0000b5b7          	lui	a1,0xb
     868:	50458593          	addi	a1,a1,1284 # b504 <_data_lma+0x813c>
     86c:	00b50633          	add	a2,a0,a1
     870:	0ec0a823          	sw	a2,240(ra)

00000874 <inst_94>:
     874:	fff00537          	lui	a0,0xfff00
     878:	fff50513          	addi	a0,a0,-1 # ffefffff <_data_strings+0x7fefb337>
     87c:	c00005b7          	lui	a1,0xc0000
     880:	00b50633          	add	a2,a0,a1
     884:	0ec0aa23          	sw	a2,244(ra)

00000888 <inst_95>:
     888:	fc000537          	lui	a0,0xfc000
     88c:	fff50513          	addi	a0,a0,-1 # fbffffff <_data_strings+0x7bffb337>
     890:	666665b7          	lui	a1,0x66666
     894:	66558593          	addi	a1,a1,1637 # 66666665 <_data_lma+0x6666329d>
     898:	00b50633          	add	a2,a0,a1
     89c:	0ec0ac23          	sw	a2,248(ra)

000008a0 <inst_96>:
     8a0:	f8000537          	lui	a0,0xf8000
     8a4:	fff50513          	addi	a0,a0,-1 # f7ffffff <_data_strings+0x77ffb337>
     8a8:	f00005b7          	lui	a1,0xf0000
     8ac:	fff58593          	addi	a1,a1,-1 # efffffff <_data_strings+0x6fffb337>
     8b0:	00b50633          	add	a2,a0,a1
     8b4:	0ec0ae23          	sw	a2,252(ra)

000008b8 <inst_97>:
     8b8:	f0000537          	lui	a0,0xf0000
     8bc:	fff50513          	addi	a0,a0,-1 # efffffff <_data_strings+0x6fffb337>
     8c0:	000015b7          	lui	a1,0x1
     8c4:	80058593          	addi	a1,a1,-2048 # 800 <inst_88+0x4>
     8c8:	00b50633          	add	a2,a0,a1
     8cc:	10c0a023          	sw	a2,256(ra)

000008d0 <inst_98>:
     8d0:	e0000537          	lui	a0,0xe0000
     8d4:	fff50513          	addi	a0,a0,-1 # dfffffff <_data_strings+0x5fffb337>
     8d8:	000205b7          	lui	a1,0x20
     8dc:	00b50633          	add	a2,a0,a1
     8e0:	10c0a223          	sw	a2,260(ra)

000008e4 <inst_99>:
     8e4:	c0000537          	lui	a0,0xc0000
     8e8:	fff50513          	addi	a0,a0,-1 # bfffffff <_data_strings+0x3fffb337>
     8ec:	f7f00593          	li	a1,-129
     8f0:	00b50633          	add	a2,a0,a1
     8f4:	10c0a423          	sw	a2,264(ra)

000008f8 <inst_100>:
     8f8:	00300513          	li	a0,3
     8fc:	00300593          	li	a1,3
     900:	00b50633          	add	a2,a0,a1
     904:	10c0a623          	sw	a2,268(ra)

00000908 <inst_101>:
     908:	00300513          	li	a0,3
     90c:	555555b7          	lui	a1,0x55555
     910:	55558593          	addi	a1,a1,1365 # 55555555 <_data_lma+0x5555218d>
     914:	00b50633          	add	a2,a0,a1
     918:	10c0a823          	sw	a2,272(ra)

0000091c <inst_102>:
     91c:	00300513          	li	a0,3
     920:	aaaab5b7          	lui	a1,0xaaaab
     924:	aaa58593          	addi	a1,a1,-1366 # aaaaaaaa <_data_strings+0x2aaa5de2>
     928:	00b50633          	add	a2,a0,a1
     92c:	10c0aa23          	sw	a2,276(ra)

00000930 <inst_103>:
     930:	00300513          	li	a0,3
     934:	00500593          	li	a1,5
     938:	00b50633          	add	a2,a0,a1
     93c:	10c0ac23          	sw	a2,280(ra)

00000940 <inst_104>:
     940:	00300513          	li	a0,3
     944:	333335b7          	lui	a1,0x33333
     948:	33358593          	addi	a1,a1,819 # 33333333 <_data_lma+0x3332ff6b>
     94c:	00b50633          	add	a2,a0,a1
     950:	10c0ae23          	sw	a2,284(ra)

00000954 <inst_105>:
     954:	00300513          	li	a0,3
     958:	666665b7          	lui	a1,0x66666
     95c:	66658593          	addi	a1,a1,1638 # 66666666 <_data_lma+0x6666329e>
     960:	00b50633          	add	a2,a0,a1
     964:	12c0a023          	sw	a2,288(ra)

00000968 <inst_106>:
     968:	00300513          	li	a0,3
     96c:	ffff55b7          	lui	a1,0xffff5
     970:	afc58593          	addi	a1,a1,-1284 # ffff4afc <_data_strings+0x7ffefe34>
     974:	00b50633          	add	a2,a0,a1
     978:	12c0a223          	sw	a2,292(ra)

0000097c <inst_107>:
     97c:	00300513          	li	a0,3
     980:	0000b5b7          	lui	a1,0xb
     984:	50458593          	addi	a1,a1,1284 # b504 <_data_lma+0x813c>
     988:	00b50633          	add	a2,a0,a1
     98c:	12c0a423          	sw	a2,296(ra)

00000990 <inst_108>:
     990:	00300513          	li	a0,3
     994:	00200593          	li	a1,2
     998:	00b50633          	add	a2,a0,a1
     99c:	12c0a623          	sw	a2,300(ra)

000009a0 <inst_109>:
     9a0:	00300513          	li	a0,3
     9a4:	555555b7          	lui	a1,0x55555
     9a8:	55458593          	addi	a1,a1,1364 # 55555554 <_data_lma+0x5555218c>
     9ac:	00b50633          	add	a2,a0,a1
     9b0:	12c0a823          	sw	a2,304(ra)

000009b4 <inst_110>:
     9b4:	00300513          	li	a0,3
     9b8:	00000593          	li	a1,0
     9bc:	00b50633          	add	a2,a0,a1
     9c0:	12c0aa23          	sw	a2,308(ra)

000009c4 <inst_111>:
     9c4:	00300513          	li	a0,3
     9c8:	00400593          	li	a1,4
     9cc:	00b50633          	add	a2,a0,a1
     9d0:	12c0ac23          	sw	a2,312(ra)

000009d4 <inst_112>:
     9d4:	00300513          	li	a0,3
     9d8:	333335b7          	lui	a1,0x33333
     9dc:	33258593          	addi	a1,a1,818 # 33333332 <_data_lma+0x3332ff6a>
     9e0:	00b50633          	add	a2,a0,a1
     9e4:	12c0ae23          	sw	a2,316(ra)

000009e8 <inst_113>:
     9e8:	00300513          	li	a0,3
     9ec:	666665b7          	lui	a1,0x66666
     9f0:	66558593          	addi	a1,a1,1637 # 66666665 <_data_lma+0x6666329d>
     9f4:	00b50633          	add	a2,a0,a1
     9f8:	14c0a023          	sw	a2,320(ra)

000009fc <inst_114>:
     9fc:	00300513          	li	a0,3
     a00:	0000b5b7          	lui	a1,0xb
     a04:	50358593          	addi	a1,a1,1283 # b503 <_data_lma+0x813b>
     a08:	00b50633          	add	a2,a0,a1
     a0c:	14c0a223          	sw	a2,324(ra)

00000a10 <inst_115>:
     a10:	00300513          	li	a0,3
     a14:	555555b7          	lui	a1,0x55555
     a18:	55658593          	addi	a1,a1,1366 # 55555556 <_data_lma+0x5555218e>
     a1c:	00b50633          	add	a2,a0,a1
     a20:	14c0a423          	sw	a2,328(ra)

00000a24 <inst_116>:
     a24:	00300513          	li	a0,3
     a28:	aaaab5b7          	lui	a1,0xaaaab
     a2c:	aab58593          	addi	a1,a1,-1365 # aaaaaaab <_data_strings+0x2aaa5de3>
     a30:	00b50633          	add	a2,a0,a1
     a34:	14c0a623          	sw	a2,332(ra)

00000a38 <inst_117>:
     a38:	00300513          	li	a0,3
     a3c:	00600593          	li	a1,6
     a40:	00b50633          	add	a2,a0,a1
     a44:	14c0a823          	sw	a2,336(ra)

00000a48 <inst_118>:
     a48:	00300513          	li	a0,3
     a4c:	333335b7          	lui	a1,0x33333
     a50:	33458593          	addi	a1,a1,820 # 33333334 <_data_lma+0x3332ff6c>
     a54:	00b50633          	add	a2,a0,a1
     a58:	14c0aa23          	sw	a2,340(ra)

00000a5c <inst_119>:
     a5c:	00300513          	li	a0,3
     a60:	666665b7          	lui	a1,0x66666
     a64:	66758593          	addi	a1,a1,1639 # 66666667 <_data_lma+0x6666329f>
     a68:	00b50633          	add	a2,a0,a1
     a6c:	14c0ac23          	sw	a2,344(ra)

00000a70 <inst_120>:
     a70:	00300513          	li	a0,3
     a74:	ffff55b7          	lui	a1,0xffff5
     a78:	afd58593          	addi	a1,a1,-1283 # ffff4afd <_data_strings+0x7ffefe35>
     a7c:	00b50633          	add	a2,a0,a1
     a80:	14c0ae23          	sw	a2,348(ra)

00000a84 <inst_121>:
     a84:	00300513          	li	a0,3
     a88:	0000b5b7          	lui	a1,0xb
     a8c:	50558593          	addi	a1,a1,1285 # b505 <_data_lma+0x813d>
     a90:	00b50633          	add	a2,a0,a1
     a94:	16c0a023          	sw	a2,352(ra)

00000a98 <inst_122>:
     a98:	55555537          	lui	a0,0x55555
     a9c:	55550513          	addi	a0,a0,1365 # 55555555 <_data_lma+0x5555218d>
     aa0:	00300593          	li	a1,3
     aa4:	00b50633          	add	a2,a0,a1
     aa8:	16c0a223          	sw	a2,356(ra)

00000aac <inst_123>:
     aac:	55555537          	lui	a0,0x55555
     ab0:	55550513          	addi	a0,a0,1365 # 55555555 <_data_lma+0x5555218d>
     ab4:	555555b7          	lui	a1,0x55555
     ab8:	55558593          	addi	a1,a1,1365 # 55555555 <_data_lma+0x5555218d>
     abc:	00b50633          	add	a2,a0,a1
     ac0:	16c0a423          	sw	a2,360(ra)

00000ac4 <inst_124>:
     ac4:	55555537          	lui	a0,0x55555
     ac8:	55550513          	addi	a0,a0,1365 # 55555555 <_data_lma+0x5555218d>
     acc:	aaaab5b7          	lui	a1,0xaaaab
     ad0:	aaa58593          	addi	a1,a1,-1366 # aaaaaaaa <_data_strings+0x2aaa5de2>
     ad4:	00b50633          	add	a2,a0,a1
     ad8:	16c0a623          	sw	a2,364(ra)

00000adc <inst_125>:
     adc:	55555537          	lui	a0,0x55555
     ae0:	55550513          	addi	a0,a0,1365 # 55555555 <_data_lma+0x5555218d>
     ae4:	00500593          	li	a1,5
     ae8:	00b50633          	add	a2,a0,a1
     aec:	16c0a823          	sw	a2,368(ra)

00000af0 <inst_126>:
     af0:	55555537          	lui	a0,0x55555
     af4:	55550513          	addi	a0,a0,1365 # 55555555 <_data_lma+0x5555218d>
     af8:	333335b7          	lui	a1,0x33333
     afc:	33358593          	addi	a1,a1,819 # 33333333 <_data_lma+0x3332ff6b>
     b00:	00b50633          	add	a2,a0,a1
     b04:	16c0aa23          	sw	a2,372(ra)

00000b08 <inst_127>:
     b08:	55555537          	lui	a0,0x55555
     b0c:	55550513          	addi	a0,a0,1365 # 55555555 <_data_lma+0x5555218d>
     b10:	666665b7          	lui	a1,0x66666
     b14:	66658593          	addi	a1,a1,1638 # 66666666 <_data_lma+0x6666329e>
     b18:	00b50633          	add	a2,a0,a1
     b1c:	16c0ac23          	sw	a2,376(ra)

00000b20 <inst_128>:
     b20:	55555537          	lui	a0,0x55555
     b24:	55550513          	addi	a0,a0,1365 # 55555555 <_data_lma+0x5555218d>
     b28:	ffff55b7          	lui	a1,0xffff5
     b2c:	afc58593          	addi	a1,a1,-1284 # ffff4afc <_data_strings+0x7ffefe34>
     b30:	00b50633          	add	a2,a0,a1
     b34:	16c0ae23          	sw	a2,380(ra)

00000b38 <inst_129>:
     b38:	55555537          	lui	a0,0x55555
     b3c:	55550513          	addi	a0,a0,1365 # 55555555 <_data_lma+0x5555218d>
     b40:	0000b5b7          	lui	a1,0xb
     b44:	50458593          	addi	a1,a1,1284 # b504 <_data_lma+0x813c>
     b48:	00b50633          	add	a2,a0,a1
     b4c:	18c0a023          	sw	a2,384(ra)

00000b50 <inst_130>:
     b50:	55555537          	lui	a0,0x55555
     b54:	55550513          	addi	a0,a0,1365 # 55555555 <_data_lma+0x5555218d>
     b58:	00200593          	li	a1,2
     b5c:	00b50633          	add	a2,a0,a1
     b60:	18c0a223          	sw	a2,388(ra)

00000b64 <inst_131>:
     b64:	55555537          	lui	a0,0x55555
     b68:	55550513          	addi	a0,a0,1365 # 55555555 <_data_lma+0x5555218d>
     b6c:	555555b7          	lui	a1,0x55555
     b70:	55458593          	addi	a1,a1,1364 # 55555554 <_data_lma+0x5555218c>
     b74:	00b50633          	add	a2,a0,a1
     b78:	18c0a423          	sw	a2,392(ra)

00000b7c <inst_132>:
     b7c:	55555537          	lui	a0,0x55555
     b80:	55550513          	addi	a0,a0,1365 # 55555555 <_data_lma+0x5555218d>
     b84:	00000593          	li	a1,0
     b88:	00b50633          	add	a2,a0,a1
     b8c:	18c0a623          	sw	a2,396(ra)

00000b90 <inst_133>:
     b90:	55555537          	lui	a0,0x55555
     b94:	55550513          	addi	a0,a0,1365 # 55555555 <_data_lma+0x5555218d>
     b98:	00400593          	li	a1,4
     b9c:	00b50633          	add	a2,a0,a1
     ba0:	18c0a823          	sw	a2,400(ra)

00000ba4 <inst_134>:
     ba4:	55555537          	lui	a0,0x55555
     ba8:	55550513          	addi	a0,a0,1365 # 55555555 <_data_lma+0x5555218d>
     bac:	333335b7          	lui	a1,0x33333
     bb0:	33258593          	addi	a1,a1,818 # 33333332 <_data_lma+0x3332ff6a>
     bb4:	00b50633          	add	a2,a0,a1
     bb8:	18c0aa23          	sw	a2,404(ra)

00000bbc <inst_135>:
     bbc:	55555537          	lui	a0,0x55555
     bc0:	55550513          	addi	a0,a0,1365 # 55555555 <_data_lma+0x5555218d>
     bc4:	666665b7          	lui	a1,0x66666
     bc8:	66558593          	addi	a1,a1,1637 # 66666665 <_data_lma+0x6666329d>
     bcc:	00b50633          	add	a2,a0,a1
     bd0:	18c0ac23          	sw	a2,408(ra)

00000bd4 <inst_136>:
     bd4:	55555537          	lui	a0,0x55555
     bd8:	55550513          	addi	a0,a0,1365 # 55555555 <_data_lma+0x5555218d>
     bdc:	0000b5b7          	lui	a1,0xb
     be0:	50358593          	addi	a1,a1,1283 # b503 <_data_lma+0x813b>
     be4:	00b50633          	add	a2,a0,a1
     be8:	18c0ae23          	sw	a2,412(ra)

00000bec <inst_137>:
     bec:	55555537          	lui	a0,0x55555
     bf0:	55550513          	addi	a0,a0,1365 # 55555555 <_data_lma+0x5555218d>
     bf4:	555555b7          	lui	a1,0x55555
     bf8:	55658593          	addi	a1,a1,1366 # 55555556 <_data_lma+0x5555218e>
     bfc:	00b50633          	add	a2,a0,a1
     c00:	1ac0a023          	sw	a2,416(ra)

00000c04 <inst_138>:
     c04:	55555537          	lui	a0,0x55555
     c08:	55550513          	addi	a0,a0,1365 # 55555555 <_data_lma+0x5555218d>
     c0c:	aaaab5b7          	lui	a1,0xaaaab
     c10:	aab58593          	addi	a1,a1,-1365 # aaaaaaab <_data_strings+0x2aaa5de3>
     c14:	00b50633          	add	a2,a0,a1
     c18:	1ac0a223          	sw	a2,420(ra)

00000c1c <inst_139>:
     c1c:	55555537          	lui	a0,0x55555
     c20:	55550513          	addi	a0,a0,1365 # 55555555 <_data_lma+0x5555218d>
     c24:	00600593          	li	a1,6
     c28:	00b50633          	add	a2,a0,a1
     c2c:	1ac0a423          	sw	a2,424(ra)

00000c30 <inst_140>:
     c30:	55555537          	lui	a0,0x55555
     c34:	55550513          	addi	a0,a0,1365 # 55555555 <_data_lma+0x5555218d>
     c38:	333335b7          	lui	a1,0x33333
     c3c:	33458593          	addi	a1,a1,820 # 33333334 <_data_lma+0x3332ff6c>
     c40:	00b50633          	add	a2,a0,a1
     c44:	1ac0a623          	sw	a2,428(ra)

00000c48 <inst_141>:
     c48:	55555537          	lui	a0,0x55555
     c4c:	55550513          	addi	a0,a0,1365 # 55555555 <_data_lma+0x5555218d>
     c50:	666665b7          	lui	a1,0x66666
     c54:	66758593          	addi	a1,a1,1639 # 66666667 <_data_lma+0x6666329f>
     c58:	00b50633          	add	a2,a0,a1
     c5c:	1ac0a823          	sw	a2,432(ra)

00000c60 <inst_142>:
     c60:	55555537          	lui	a0,0x55555
     c64:	55550513          	addi	a0,a0,1365 # 55555555 <_data_lma+0x5555218d>
     c68:	ffff55b7          	lui	a1,0xffff5
     c6c:	afd58593          	addi	a1,a1,-1283 # ffff4afd <_data_strings+0x7ffefe35>
     c70:	00b50633          	add	a2,a0,a1
     c74:	1ac0aa23          	sw	a2,436(ra)

00000c78 <inst_143>:
     c78:	55555537          	lui	a0,0x55555
     c7c:	55550513          	addi	a0,a0,1365 # 55555555 <_data_lma+0x5555218d>
     c80:	0000b5b7          	lui	a1,0xb
     c84:	50558593          	addi	a1,a1,1285 # b505 <_data_lma+0x813d>
     c88:	00b50633          	add	a2,a0,a1
     c8c:	1ac0ac23          	sw	a2,440(ra)

00000c90 <inst_144>:
     c90:	aaaab537          	lui	a0,0xaaaab
     c94:	aaa50513          	addi	a0,a0,-1366 # aaaaaaaa <_data_strings+0x2aaa5de2>
     c98:	00300593          	li	a1,3
     c9c:	00b50633          	add	a2,a0,a1
     ca0:	1ac0ae23          	sw	a2,444(ra)

00000ca4 <inst_145>:
     ca4:	aaaab537          	lui	a0,0xaaaab
     ca8:	aaa50513          	addi	a0,a0,-1366 # aaaaaaaa <_data_strings+0x2aaa5de2>
     cac:	555555b7          	lui	a1,0x55555
     cb0:	55558593          	addi	a1,a1,1365 # 55555555 <_data_lma+0x5555218d>
     cb4:	00b50633          	add	a2,a0,a1
     cb8:	1cc0a023          	sw	a2,448(ra)

00000cbc <inst_146>:
     cbc:	aaaab537          	lui	a0,0xaaaab
     cc0:	aaa50513          	addi	a0,a0,-1366 # aaaaaaaa <_data_strings+0x2aaa5de2>
     cc4:	aaaab5b7          	lui	a1,0xaaaab
     cc8:	aaa58593          	addi	a1,a1,-1366 # aaaaaaaa <_data_strings+0x2aaa5de2>
     ccc:	00b50633          	add	a2,a0,a1
     cd0:	1cc0a223          	sw	a2,452(ra)

00000cd4 <inst_147>:
     cd4:	aaaab537          	lui	a0,0xaaaab
     cd8:	aaa50513          	addi	a0,a0,-1366 # aaaaaaaa <_data_strings+0x2aaa5de2>
     cdc:	00500593          	li	a1,5
     ce0:	00b50633          	add	a2,a0,a1
     ce4:	1cc0a423          	sw	a2,456(ra)

00000ce8 <inst_148>:
     ce8:	aaaab537          	lui	a0,0xaaaab
     cec:	aaa50513          	addi	a0,a0,-1366 # aaaaaaaa <_data_strings+0x2aaa5de2>
     cf0:	333335b7          	lui	a1,0x33333
     cf4:	33358593          	addi	a1,a1,819 # 33333333 <_data_lma+0x3332ff6b>
     cf8:	00b50633          	add	a2,a0,a1
     cfc:	1cc0a623          	sw	a2,460(ra)

00000d00 <inst_149>:
     d00:	aaaab537          	lui	a0,0xaaaab
     d04:	aaa50513          	addi	a0,a0,-1366 # aaaaaaaa <_data_strings+0x2aaa5de2>
     d08:	666665b7          	lui	a1,0x66666
     d0c:	66658593          	addi	a1,a1,1638 # 66666666 <_data_lma+0x6666329e>
     d10:	00b50633          	add	a2,a0,a1
     d14:	1cc0a823          	sw	a2,464(ra)

00000d18 <inst_150>:
     d18:	aaaab537          	lui	a0,0xaaaab
     d1c:	aaa50513          	addi	a0,a0,-1366 # aaaaaaaa <_data_strings+0x2aaa5de2>
     d20:	ffff55b7          	lui	a1,0xffff5
     d24:	afc58593          	addi	a1,a1,-1284 # ffff4afc <_data_strings+0x7ffefe34>
     d28:	00b50633          	add	a2,a0,a1
     d2c:	1cc0aa23          	sw	a2,468(ra)

00000d30 <inst_151>:
     d30:	aaaab537          	lui	a0,0xaaaab
     d34:	aaa50513          	addi	a0,a0,-1366 # aaaaaaaa <_data_strings+0x2aaa5de2>
     d38:	0000b5b7          	lui	a1,0xb
     d3c:	50458593          	addi	a1,a1,1284 # b504 <_data_lma+0x813c>
     d40:	00b50633          	add	a2,a0,a1
     d44:	1cc0ac23          	sw	a2,472(ra)

00000d48 <inst_152>:
     d48:	aaaab537          	lui	a0,0xaaaab
     d4c:	aaa50513          	addi	a0,a0,-1366 # aaaaaaaa <_data_strings+0x2aaa5de2>
     d50:	00200593          	li	a1,2
     d54:	00b50633          	add	a2,a0,a1
     d58:	1cc0ae23          	sw	a2,476(ra)

00000d5c <inst_153>:
     d5c:	aaaab537          	lui	a0,0xaaaab
     d60:	aaa50513          	addi	a0,a0,-1366 # aaaaaaaa <_data_strings+0x2aaa5de2>
     d64:	555555b7          	lui	a1,0x55555
     d68:	55458593          	addi	a1,a1,1364 # 55555554 <_data_lma+0x5555218c>
     d6c:	00b50633          	add	a2,a0,a1
     d70:	1ec0a023          	sw	a2,480(ra)

00000d74 <inst_154>:
     d74:	aaaab537          	lui	a0,0xaaaab
     d78:	aaa50513          	addi	a0,a0,-1366 # aaaaaaaa <_data_strings+0x2aaa5de2>
     d7c:	00000593          	li	a1,0
     d80:	00b50633          	add	a2,a0,a1
     d84:	1ec0a223          	sw	a2,484(ra)

00000d88 <inst_155>:
     d88:	aaaab537          	lui	a0,0xaaaab
     d8c:	aaa50513          	addi	a0,a0,-1366 # aaaaaaaa <_data_strings+0x2aaa5de2>
     d90:	00400593          	li	a1,4
     d94:	00b50633          	add	a2,a0,a1
     d98:	1ec0a423          	sw	a2,488(ra)

00000d9c <inst_156>:
     d9c:	aaaab537          	lui	a0,0xaaaab
     da0:	aaa50513          	addi	a0,a0,-1366 # aaaaaaaa <_data_strings+0x2aaa5de2>
     da4:	333335b7          	lui	a1,0x33333
     da8:	33258593          	addi	a1,a1,818 # 33333332 <_data_lma+0x3332ff6a>
     dac:	00b50633          	add	a2,a0,a1
     db0:	1ec0a623          	sw	a2,492(ra)

00000db4 <inst_157>:
     db4:	aaaab537          	lui	a0,0xaaaab
     db8:	aaa50513          	addi	a0,a0,-1366 # aaaaaaaa <_data_strings+0x2aaa5de2>
     dbc:	666665b7          	lui	a1,0x66666
     dc0:	66558593          	addi	a1,a1,1637 # 66666665 <_data_lma+0x6666329d>
     dc4:	00b50633          	add	a2,a0,a1
     dc8:	1ec0a823          	sw	a2,496(ra)

00000dcc <inst_158>:
     dcc:	aaaab537          	lui	a0,0xaaaab
     dd0:	aaa50513          	addi	a0,a0,-1366 # aaaaaaaa <_data_strings+0x2aaa5de2>
     dd4:	0000b5b7          	lui	a1,0xb
     dd8:	50358593          	addi	a1,a1,1283 # b503 <_data_lma+0x813b>
     ddc:	00b50633          	add	a2,a0,a1
     de0:	1ec0aa23          	sw	a2,500(ra)

00000de4 <inst_159>:
     de4:	aaaab537          	lui	a0,0xaaaab
     de8:	aaa50513          	addi	a0,a0,-1366 # aaaaaaaa <_data_strings+0x2aaa5de2>
     dec:	555555b7          	lui	a1,0x55555
     df0:	55658593          	addi	a1,a1,1366 # 55555556 <_data_lma+0x5555218e>
     df4:	00b50633          	add	a2,a0,a1
     df8:	1ec0ac23          	sw	a2,504(ra)

00000dfc <inst_160>:
     dfc:	aaaab537          	lui	a0,0xaaaab
     e00:	aaa50513          	addi	a0,a0,-1366 # aaaaaaaa <_data_strings+0x2aaa5de2>
     e04:	aaaab5b7          	lui	a1,0xaaaab
     e08:	aab58593          	addi	a1,a1,-1365 # aaaaaaab <_data_strings+0x2aaa5de3>
     e0c:	00b50633          	add	a2,a0,a1
     e10:	1ec0ae23          	sw	a2,508(ra)

00000e14 <inst_161>:
     e14:	aaaab537          	lui	a0,0xaaaab
     e18:	aaa50513          	addi	a0,a0,-1366 # aaaaaaaa <_data_strings+0x2aaa5de2>
     e1c:	00600593          	li	a1,6
     e20:	00b50633          	add	a2,a0,a1
     e24:	20c0a023          	sw	a2,512(ra)

00000e28 <inst_162>:
     e28:	aaaab537          	lui	a0,0xaaaab
     e2c:	aaa50513          	addi	a0,a0,-1366 # aaaaaaaa <_data_strings+0x2aaa5de2>
     e30:	333335b7          	lui	a1,0x33333
     e34:	33458593          	addi	a1,a1,820 # 33333334 <_data_lma+0x3332ff6c>
     e38:	00b50633          	add	a2,a0,a1
     e3c:	20c0a223          	sw	a2,516(ra)

00000e40 <inst_163>:
     e40:	aaaab537          	lui	a0,0xaaaab
     e44:	aaa50513          	addi	a0,a0,-1366 # aaaaaaaa <_data_strings+0x2aaa5de2>
     e48:	666665b7          	lui	a1,0x66666
     e4c:	66758593          	addi	a1,a1,1639 # 66666667 <_data_lma+0x6666329f>
     e50:	00b50633          	add	a2,a0,a1
     e54:	20c0a423          	sw	a2,520(ra)

00000e58 <inst_164>:
     e58:	aaaab537          	lui	a0,0xaaaab
     e5c:	aaa50513          	addi	a0,a0,-1366 # aaaaaaaa <_data_strings+0x2aaa5de2>
     e60:	ffff55b7          	lui	a1,0xffff5
     e64:	afd58593          	addi	a1,a1,-1283 # ffff4afd <_data_strings+0x7ffefe35>
     e68:	00b50633          	add	a2,a0,a1
     e6c:	20c0a623          	sw	a2,524(ra)

00000e70 <inst_165>:
     e70:	aaaab537          	lui	a0,0xaaaab
     e74:	aaa50513          	addi	a0,a0,-1366 # aaaaaaaa <_data_strings+0x2aaa5de2>
     e78:	0000b5b7          	lui	a1,0xb
     e7c:	50558593          	addi	a1,a1,1285 # b505 <_data_lma+0x813d>
     e80:	00b50633          	add	a2,a0,a1
     e84:	20c0a823          	sw	a2,528(ra)

00000e88 <inst_166>:
     e88:	00500513          	li	a0,5
     e8c:	00300593          	li	a1,3
     e90:	00b50633          	add	a2,a0,a1
     e94:	20c0aa23          	sw	a2,532(ra)

00000e98 <inst_167>:
     e98:	00500513          	li	a0,5
     e9c:	555555b7          	lui	a1,0x55555
     ea0:	55558593          	addi	a1,a1,1365 # 55555555 <_data_lma+0x5555218d>
     ea4:	00b50633          	add	a2,a0,a1
     ea8:	20c0ac23          	sw	a2,536(ra)

00000eac <inst_168>:
     eac:	00500513          	li	a0,5
     eb0:	aaaab5b7          	lui	a1,0xaaaab
     eb4:	aaa58593          	addi	a1,a1,-1366 # aaaaaaaa <_data_strings+0x2aaa5de2>
     eb8:	00b50633          	add	a2,a0,a1
     ebc:	20c0ae23          	sw	a2,540(ra)

00000ec0 <inst_169>:
     ec0:	00500513          	li	a0,5
     ec4:	00500593          	li	a1,5
     ec8:	00b50633          	add	a2,a0,a1
     ecc:	22c0a023          	sw	a2,544(ra)

00000ed0 <inst_170>:
     ed0:	00500513          	li	a0,5
     ed4:	333335b7          	lui	a1,0x33333
     ed8:	33358593          	addi	a1,a1,819 # 33333333 <_data_lma+0x3332ff6b>
     edc:	00b50633          	add	a2,a0,a1
     ee0:	22c0a223          	sw	a2,548(ra)

00000ee4 <inst_171>:
     ee4:	00500513          	li	a0,5
     ee8:	666665b7          	lui	a1,0x66666
     eec:	66658593          	addi	a1,a1,1638 # 66666666 <_data_lma+0x6666329e>
     ef0:	00b50633          	add	a2,a0,a1
     ef4:	22c0a423          	sw	a2,552(ra)

00000ef8 <inst_172>:
     ef8:	00500513          	li	a0,5
     efc:	ffff55b7          	lui	a1,0xffff5
     f00:	afc58593          	addi	a1,a1,-1284 # ffff4afc <_data_strings+0x7ffefe34>
     f04:	00b50633          	add	a2,a0,a1
     f08:	22c0a623          	sw	a2,556(ra)

00000f0c <inst_173>:
     f0c:	00500513          	li	a0,5
     f10:	0000b5b7          	lui	a1,0xb
     f14:	50458593          	addi	a1,a1,1284 # b504 <_data_lma+0x813c>
     f18:	00b50633          	add	a2,a0,a1
     f1c:	22c0a823          	sw	a2,560(ra)

00000f20 <inst_174>:
     f20:	00500513          	li	a0,5
     f24:	00200593          	li	a1,2
     f28:	00b50633          	add	a2,a0,a1
     f2c:	22c0aa23          	sw	a2,564(ra)

00000f30 <inst_175>:
     f30:	00500513          	li	a0,5
     f34:	555555b7          	lui	a1,0x55555
     f38:	55458593          	addi	a1,a1,1364 # 55555554 <_data_lma+0x5555218c>
     f3c:	00b50633          	add	a2,a0,a1
     f40:	22c0ac23          	sw	a2,568(ra)

00000f44 <inst_176>:
     f44:	00500513          	li	a0,5
     f48:	00000593          	li	a1,0
     f4c:	00b50633          	add	a2,a0,a1
     f50:	22c0ae23          	sw	a2,572(ra)

00000f54 <inst_177>:
     f54:	00500513          	li	a0,5
     f58:	00400593          	li	a1,4
     f5c:	00b50633          	add	a2,a0,a1
     f60:	24c0a023          	sw	a2,576(ra)

00000f64 <inst_178>:
     f64:	00500513          	li	a0,5
     f68:	333335b7          	lui	a1,0x33333
     f6c:	33258593          	addi	a1,a1,818 # 33333332 <_data_lma+0x3332ff6a>
     f70:	00b50633          	add	a2,a0,a1
     f74:	24c0a223          	sw	a2,580(ra)

00000f78 <inst_179>:
     f78:	00500513          	li	a0,5
     f7c:	666665b7          	lui	a1,0x66666
     f80:	66558593          	addi	a1,a1,1637 # 66666665 <_data_lma+0x6666329d>
     f84:	00b50633          	add	a2,a0,a1
     f88:	24c0a423          	sw	a2,584(ra)

00000f8c <inst_180>:
     f8c:	00500513          	li	a0,5
     f90:	0000b5b7          	lui	a1,0xb
     f94:	50358593          	addi	a1,a1,1283 # b503 <_data_lma+0x813b>
     f98:	00b50633          	add	a2,a0,a1
     f9c:	24c0a623          	sw	a2,588(ra)

00000fa0 <inst_181>:
     fa0:	00500513          	li	a0,5
     fa4:	555555b7          	lui	a1,0x55555
     fa8:	55658593          	addi	a1,a1,1366 # 55555556 <_data_lma+0x5555218e>
     fac:	00b50633          	add	a2,a0,a1
     fb0:	24c0a823          	sw	a2,592(ra)

00000fb4 <inst_182>:
     fb4:	00500513          	li	a0,5
     fb8:	aaaab5b7          	lui	a1,0xaaaab
     fbc:	aab58593          	addi	a1,a1,-1365 # aaaaaaab <_data_strings+0x2aaa5de3>
     fc0:	00b50633          	add	a2,a0,a1
     fc4:	24c0aa23          	sw	a2,596(ra)

00000fc8 <inst_183>:
     fc8:	00500513          	li	a0,5
     fcc:	00600593          	li	a1,6
     fd0:	00b50633          	add	a2,a0,a1
     fd4:	24c0ac23          	sw	a2,600(ra)

00000fd8 <inst_184>:
     fd8:	00500513          	li	a0,5
     fdc:	333335b7          	lui	a1,0x33333
     fe0:	33458593          	addi	a1,a1,820 # 33333334 <_data_lma+0x3332ff6c>
     fe4:	00b50633          	add	a2,a0,a1
     fe8:	24c0ae23          	sw	a2,604(ra)

00000fec <inst_185>:
     fec:	00500513          	li	a0,5
     ff0:	666665b7          	lui	a1,0x66666
     ff4:	66758593          	addi	a1,a1,1639 # 66666667 <_data_lma+0x6666329f>
     ff8:	00b50633          	add	a2,a0,a1
     ffc:	26c0a023          	sw	a2,608(ra)

00001000 <inst_186>:
    1000:	00500513          	li	a0,5
    1004:	ffff55b7          	lui	a1,0xffff5
    1008:	afd58593          	addi	a1,a1,-1283 # ffff4afd <_data_strings+0x7ffefe35>
    100c:	00b50633          	add	a2,a0,a1
    1010:	26c0a223          	sw	a2,612(ra)

00001014 <inst_187>:
    1014:	00500513          	li	a0,5
    1018:	0000b5b7          	lui	a1,0xb
    101c:	50558593          	addi	a1,a1,1285 # b505 <_data_lma+0x813d>
    1020:	00b50633          	add	a2,a0,a1
    1024:	26c0a423          	sw	a2,616(ra)

00001028 <inst_188>:
    1028:	33333537          	lui	a0,0x33333
    102c:	33350513          	addi	a0,a0,819 # 33333333 <_data_lma+0x3332ff6b>
    1030:	00300593          	li	a1,3
    1034:	00b50633          	add	a2,a0,a1
    1038:	26c0a623          	sw	a2,620(ra)

0000103c <inst_189>:
    103c:	33333537          	lui	a0,0x33333
    1040:	33350513          	addi	a0,a0,819 # 33333333 <_data_lma+0x3332ff6b>
    1044:	555555b7          	lui	a1,0x55555
    1048:	55558593          	addi	a1,a1,1365 # 55555555 <_data_lma+0x5555218d>
    104c:	00b50633          	add	a2,a0,a1
    1050:	26c0a823          	sw	a2,624(ra)

00001054 <inst_190>:
    1054:	33333537          	lui	a0,0x33333
    1058:	33350513          	addi	a0,a0,819 # 33333333 <_data_lma+0x3332ff6b>
    105c:	aaaab5b7          	lui	a1,0xaaaab
    1060:	aaa58593          	addi	a1,a1,-1366 # aaaaaaaa <_data_strings+0x2aaa5de2>
    1064:	00b50633          	add	a2,a0,a1
    1068:	26c0aa23          	sw	a2,628(ra)

0000106c <inst_191>:
    106c:	33333537          	lui	a0,0x33333
    1070:	33350513          	addi	a0,a0,819 # 33333333 <_data_lma+0x3332ff6b>
    1074:	00500593          	li	a1,5
    1078:	00b50633          	add	a2,a0,a1
    107c:	26c0ac23          	sw	a2,632(ra)

00001080 <inst_192>:
    1080:	33333537          	lui	a0,0x33333
    1084:	33350513          	addi	a0,a0,819 # 33333333 <_data_lma+0x3332ff6b>
    1088:	333335b7          	lui	a1,0x33333
    108c:	33358593          	addi	a1,a1,819 # 33333333 <_data_lma+0x3332ff6b>
    1090:	00b50633          	add	a2,a0,a1
    1094:	26c0ae23          	sw	a2,636(ra)

00001098 <inst_193>:
    1098:	33333537          	lui	a0,0x33333
    109c:	33350513          	addi	a0,a0,819 # 33333333 <_data_lma+0x3332ff6b>
    10a0:	666665b7          	lui	a1,0x66666
    10a4:	66658593          	addi	a1,a1,1638 # 66666666 <_data_lma+0x6666329e>
    10a8:	00b50633          	add	a2,a0,a1
    10ac:	28c0a023          	sw	a2,640(ra)

000010b0 <inst_194>:
    10b0:	33333537          	lui	a0,0x33333
    10b4:	33350513          	addi	a0,a0,819 # 33333333 <_data_lma+0x3332ff6b>
    10b8:	ffff55b7          	lui	a1,0xffff5
    10bc:	afc58593          	addi	a1,a1,-1284 # ffff4afc <_data_strings+0x7ffefe34>
    10c0:	00b50633          	add	a2,a0,a1
    10c4:	28c0a223          	sw	a2,644(ra)

000010c8 <inst_195>:
    10c8:	33333537          	lui	a0,0x33333
    10cc:	33350513          	addi	a0,a0,819 # 33333333 <_data_lma+0x3332ff6b>
    10d0:	0000b5b7          	lui	a1,0xb
    10d4:	50458593          	addi	a1,a1,1284 # b504 <_data_lma+0x813c>
    10d8:	00b50633          	add	a2,a0,a1
    10dc:	28c0a423          	sw	a2,648(ra)

000010e0 <inst_196>:
    10e0:	33333537          	lui	a0,0x33333
    10e4:	33350513          	addi	a0,a0,819 # 33333333 <_data_lma+0x3332ff6b>
    10e8:	00200593          	li	a1,2
    10ec:	00b50633          	add	a2,a0,a1
    10f0:	28c0a623          	sw	a2,652(ra)

000010f4 <inst_197>:
    10f4:	33333537          	lui	a0,0x33333
    10f8:	33350513          	addi	a0,a0,819 # 33333333 <_data_lma+0x3332ff6b>
    10fc:	555555b7          	lui	a1,0x55555
    1100:	55458593          	addi	a1,a1,1364 # 55555554 <_data_lma+0x5555218c>
    1104:	00b50633          	add	a2,a0,a1
    1108:	28c0a823          	sw	a2,656(ra)

0000110c <inst_198>:
    110c:	33333537          	lui	a0,0x33333
    1110:	33350513          	addi	a0,a0,819 # 33333333 <_data_lma+0x3332ff6b>
    1114:	00000593          	li	a1,0
    1118:	00b50633          	add	a2,a0,a1
    111c:	28c0aa23          	sw	a2,660(ra)

00001120 <inst_199>:
    1120:	33333537          	lui	a0,0x33333
    1124:	33350513          	addi	a0,a0,819 # 33333333 <_data_lma+0x3332ff6b>
    1128:	00400593          	li	a1,4
    112c:	00b50633          	add	a2,a0,a1
    1130:	28c0ac23          	sw	a2,664(ra)

00001134 <inst_200>:
    1134:	33333537          	lui	a0,0x33333
    1138:	33350513          	addi	a0,a0,819 # 33333333 <_data_lma+0x3332ff6b>
    113c:	333335b7          	lui	a1,0x33333
    1140:	33258593          	addi	a1,a1,818 # 33333332 <_data_lma+0x3332ff6a>
    1144:	00b50633          	add	a2,a0,a1
    1148:	28c0ae23          	sw	a2,668(ra)

0000114c <inst_201>:
    114c:	33333537          	lui	a0,0x33333
    1150:	33350513          	addi	a0,a0,819 # 33333333 <_data_lma+0x3332ff6b>
    1154:	666665b7          	lui	a1,0x66666
    1158:	66558593          	addi	a1,a1,1637 # 66666665 <_data_lma+0x6666329d>
    115c:	00b50633          	add	a2,a0,a1
    1160:	2ac0a023          	sw	a2,672(ra)

00001164 <inst_202>:
    1164:	33333537          	lui	a0,0x33333
    1168:	33350513          	addi	a0,a0,819 # 33333333 <_data_lma+0x3332ff6b>
    116c:	0000b5b7          	lui	a1,0xb
    1170:	50358593          	addi	a1,a1,1283 # b503 <_data_lma+0x813b>
    1174:	00b50633          	add	a2,a0,a1
    1178:	2ac0a223          	sw	a2,676(ra)

0000117c <inst_203>:
    117c:	33333537          	lui	a0,0x33333
    1180:	33350513          	addi	a0,a0,819 # 33333333 <_data_lma+0x3332ff6b>
    1184:	555555b7          	lui	a1,0x55555
    1188:	55658593          	addi	a1,a1,1366 # 55555556 <_data_lma+0x5555218e>
    118c:	00b50633          	add	a2,a0,a1
    1190:	2ac0a423          	sw	a2,680(ra)

00001194 <inst_204>:
    1194:	33333537          	lui	a0,0x33333
    1198:	33350513          	addi	a0,a0,819 # 33333333 <_data_lma+0x3332ff6b>
    119c:	aaaab5b7          	lui	a1,0xaaaab
    11a0:	aab58593          	addi	a1,a1,-1365 # aaaaaaab <_data_strings+0x2aaa5de3>
    11a4:	00b50633          	add	a2,a0,a1
    11a8:	2ac0a623          	sw	a2,684(ra)

000011ac <inst_205>:
    11ac:	33333537          	lui	a0,0x33333
    11b0:	33350513          	addi	a0,a0,819 # 33333333 <_data_lma+0x3332ff6b>
    11b4:	00600593          	li	a1,6
    11b8:	00b50633          	add	a2,a0,a1
    11bc:	2ac0a823          	sw	a2,688(ra)

000011c0 <inst_206>:
    11c0:	33333537          	lui	a0,0x33333
    11c4:	33350513          	addi	a0,a0,819 # 33333333 <_data_lma+0x3332ff6b>
    11c8:	333335b7          	lui	a1,0x33333
    11cc:	33458593          	addi	a1,a1,820 # 33333334 <_data_lma+0x3332ff6c>
    11d0:	00b50633          	add	a2,a0,a1
    11d4:	2ac0aa23          	sw	a2,692(ra)

000011d8 <inst_207>:
    11d8:	33333537          	lui	a0,0x33333
    11dc:	33350513          	addi	a0,a0,819 # 33333333 <_data_lma+0x3332ff6b>
    11e0:	666665b7          	lui	a1,0x66666
    11e4:	66758593          	addi	a1,a1,1639 # 66666667 <_data_lma+0x6666329f>
    11e8:	00b50633          	add	a2,a0,a1
    11ec:	2ac0ac23          	sw	a2,696(ra)

000011f0 <inst_208>:
    11f0:	33333537          	lui	a0,0x33333
    11f4:	33350513          	addi	a0,a0,819 # 33333333 <_data_lma+0x3332ff6b>
    11f8:	ffff55b7          	lui	a1,0xffff5
    11fc:	afd58593          	addi	a1,a1,-1283 # ffff4afd <_data_strings+0x7ffefe35>
    1200:	00b50633          	add	a2,a0,a1
    1204:	2ac0ae23          	sw	a2,700(ra)

00001208 <inst_209>:
    1208:	33333537          	lui	a0,0x33333
    120c:	33350513          	addi	a0,a0,819 # 33333333 <_data_lma+0x3332ff6b>
    1210:	0000b5b7          	lui	a1,0xb
    1214:	50558593          	addi	a1,a1,1285 # b505 <_data_lma+0x813d>
    1218:	00b50633          	add	a2,a0,a1
    121c:	2cc0a023          	sw	a2,704(ra)

00001220 <inst_210>:
    1220:	66666537          	lui	a0,0x66666
    1224:	66650513          	addi	a0,a0,1638 # 66666666 <_data_lma+0x6666329e>
    1228:	00300593          	li	a1,3
    122c:	00b50633          	add	a2,a0,a1
    1230:	2cc0a223          	sw	a2,708(ra)

00001234 <inst_211>:
    1234:	66666537          	lui	a0,0x66666
    1238:	66650513          	addi	a0,a0,1638 # 66666666 <_data_lma+0x6666329e>
    123c:	555555b7          	lui	a1,0x55555
    1240:	55558593          	addi	a1,a1,1365 # 55555555 <_data_lma+0x5555218d>
    1244:	00b50633          	add	a2,a0,a1
    1248:	2cc0a423          	sw	a2,712(ra)

0000124c <inst_212>:
    124c:	66666537          	lui	a0,0x66666
    1250:	66650513          	addi	a0,a0,1638 # 66666666 <_data_lma+0x6666329e>
    1254:	aaaab5b7          	lui	a1,0xaaaab
    1258:	aaa58593          	addi	a1,a1,-1366 # aaaaaaaa <_data_strings+0x2aaa5de2>
    125c:	00b50633          	add	a2,a0,a1
    1260:	2cc0a623          	sw	a2,716(ra)

00001264 <inst_213>:
    1264:	66666537          	lui	a0,0x66666
    1268:	66650513          	addi	a0,a0,1638 # 66666666 <_data_lma+0x6666329e>
    126c:	00500593          	li	a1,5
    1270:	00b50633          	add	a2,a0,a1
    1274:	2cc0a823          	sw	a2,720(ra)

00001278 <inst_214>:
    1278:	66666537          	lui	a0,0x66666
    127c:	66650513          	addi	a0,a0,1638 # 66666666 <_data_lma+0x6666329e>
    1280:	333335b7          	lui	a1,0x33333
    1284:	33358593          	addi	a1,a1,819 # 33333333 <_data_lma+0x3332ff6b>
    1288:	00b50633          	add	a2,a0,a1
    128c:	2cc0aa23          	sw	a2,724(ra)

00001290 <inst_215>:
    1290:	66666537          	lui	a0,0x66666
    1294:	66650513          	addi	a0,a0,1638 # 66666666 <_data_lma+0x6666329e>
    1298:	666665b7          	lui	a1,0x66666
    129c:	66658593          	addi	a1,a1,1638 # 66666666 <_data_lma+0x6666329e>
    12a0:	00b50633          	add	a2,a0,a1
    12a4:	2cc0ac23          	sw	a2,728(ra)

000012a8 <inst_216>:
    12a8:	66666537          	lui	a0,0x66666
    12ac:	66650513          	addi	a0,a0,1638 # 66666666 <_data_lma+0x6666329e>
    12b0:	ffff55b7          	lui	a1,0xffff5
    12b4:	afc58593          	addi	a1,a1,-1284 # ffff4afc <_data_strings+0x7ffefe34>
    12b8:	00b50633          	add	a2,a0,a1
    12bc:	2cc0ae23          	sw	a2,732(ra)

000012c0 <inst_217>:
    12c0:	66666537          	lui	a0,0x66666
    12c4:	66650513          	addi	a0,a0,1638 # 66666666 <_data_lma+0x6666329e>
    12c8:	0000b5b7          	lui	a1,0xb
    12cc:	50458593          	addi	a1,a1,1284 # b504 <_data_lma+0x813c>
    12d0:	00b50633          	add	a2,a0,a1
    12d4:	2ec0a023          	sw	a2,736(ra)

000012d8 <inst_218>:
    12d8:	66666537          	lui	a0,0x66666
    12dc:	66650513          	addi	a0,a0,1638 # 66666666 <_data_lma+0x6666329e>
    12e0:	00200593          	li	a1,2
    12e4:	00b50633          	add	a2,a0,a1
    12e8:	2ec0a223          	sw	a2,740(ra)

000012ec <inst_219>:
    12ec:	66666537          	lui	a0,0x66666
    12f0:	66650513          	addi	a0,a0,1638 # 66666666 <_data_lma+0x6666329e>
    12f4:	555555b7          	lui	a1,0x55555
    12f8:	55458593          	addi	a1,a1,1364 # 55555554 <_data_lma+0x5555218c>
    12fc:	00b50633          	add	a2,a0,a1
    1300:	2ec0a423          	sw	a2,744(ra)

00001304 <inst_220>:
    1304:	66666537          	lui	a0,0x66666
    1308:	66650513          	addi	a0,a0,1638 # 66666666 <_data_lma+0x6666329e>
    130c:	00000593          	li	a1,0
    1310:	00b50633          	add	a2,a0,a1
    1314:	2ec0a623          	sw	a2,748(ra)

00001318 <inst_221>:
    1318:	66666537          	lui	a0,0x66666
    131c:	66650513          	addi	a0,a0,1638 # 66666666 <_data_lma+0x6666329e>
    1320:	00400593          	li	a1,4
    1324:	00b50633          	add	a2,a0,a1
    1328:	2ec0a823          	sw	a2,752(ra)

0000132c <inst_222>:
    132c:	66666537          	lui	a0,0x66666
    1330:	66650513          	addi	a0,a0,1638 # 66666666 <_data_lma+0x6666329e>
    1334:	333335b7          	lui	a1,0x33333
    1338:	33258593          	addi	a1,a1,818 # 33333332 <_data_lma+0x3332ff6a>
    133c:	00b50633          	add	a2,a0,a1
    1340:	2ec0aa23          	sw	a2,756(ra)

00001344 <inst_223>:
    1344:	66666537          	lui	a0,0x66666
    1348:	66650513          	addi	a0,a0,1638 # 66666666 <_data_lma+0x6666329e>
    134c:	666665b7          	lui	a1,0x66666
    1350:	66558593          	addi	a1,a1,1637 # 66666665 <_data_lma+0x6666329d>
    1354:	00b50633          	add	a2,a0,a1
    1358:	2ec0ac23          	sw	a2,760(ra)

0000135c <inst_224>:
    135c:	66666537          	lui	a0,0x66666
    1360:	66650513          	addi	a0,a0,1638 # 66666666 <_data_lma+0x6666329e>
    1364:	0000b5b7          	lui	a1,0xb
    1368:	50358593          	addi	a1,a1,1283 # b503 <_data_lma+0x813b>
    136c:	00b50633          	add	a2,a0,a1
    1370:	2ec0ae23          	sw	a2,764(ra)

00001374 <inst_225>:
    1374:	66666537          	lui	a0,0x66666
    1378:	66650513          	addi	a0,a0,1638 # 66666666 <_data_lma+0x6666329e>
    137c:	555555b7          	lui	a1,0x55555
    1380:	55658593          	addi	a1,a1,1366 # 55555556 <_data_lma+0x5555218e>
    1384:	00b50633          	add	a2,a0,a1
    1388:	30c0a023          	sw	a2,768(ra)

0000138c <inst_226>:
    138c:	66666537          	lui	a0,0x66666
    1390:	66650513          	addi	a0,a0,1638 # 66666666 <_data_lma+0x6666329e>
    1394:	aaaab5b7          	lui	a1,0xaaaab
    1398:	aab58593          	addi	a1,a1,-1365 # aaaaaaab <_data_strings+0x2aaa5de3>
    139c:	00b50633          	add	a2,a0,a1
    13a0:	30c0a223          	sw	a2,772(ra)

000013a4 <inst_227>:
    13a4:	66666537          	lui	a0,0x66666
    13a8:	66650513          	addi	a0,a0,1638 # 66666666 <_data_lma+0x6666329e>
    13ac:	00600593          	li	a1,6
    13b0:	00b50633          	add	a2,a0,a1
    13b4:	30c0a423          	sw	a2,776(ra)

000013b8 <inst_228>:
    13b8:	66666537          	lui	a0,0x66666
    13bc:	66650513          	addi	a0,a0,1638 # 66666666 <_data_lma+0x6666329e>
    13c0:	333335b7          	lui	a1,0x33333
    13c4:	33458593          	addi	a1,a1,820 # 33333334 <_data_lma+0x3332ff6c>
    13c8:	00b50633          	add	a2,a0,a1
    13cc:	30c0a623          	sw	a2,780(ra)

000013d0 <inst_229>:
    13d0:	66666537          	lui	a0,0x66666
    13d4:	66650513          	addi	a0,a0,1638 # 66666666 <_data_lma+0x6666329e>
    13d8:	666665b7          	lui	a1,0x66666
    13dc:	66758593          	addi	a1,a1,1639 # 66666667 <_data_lma+0x6666329f>
    13e0:	00b50633          	add	a2,a0,a1
    13e4:	30c0a823          	sw	a2,784(ra)

000013e8 <inst_230>:
    13e8:	66666537          	lui	a0,0x66666
    13ec:	66650513          	addi	a0,a0,1638 # 66666666 <_data_lma+0x6666329e>
    13f0:	ffff55b7          	lui	a1,0xffff5
    13f4:	afd58593          	addi	a1,a1,-1283 # ffff4afd <_data_strings+0x7ffefe35>
    13f8:	00b50633          	add	a2,a0,a1
    13fc:	30c0aa23          	sw	a2,788(ra)

00001400 <inst_231>:
    1400:	66666537          	lui	a0,0x66666
    1404:	66650513          	addi	a0,a0,1638 # 66666666 <_data_lma+0x6666329e>
    1408:	0000b5b7          	lui	a1,0xb
    140c:	50558593          	addi	a1,a1,1285 # b505 <_data_lma+0x813d>
    1410:	00b50633          	add	a2,a0,a1
    1414:	30c0ac23          	sw	a2,792(ra)

00001418 <inst_232>:
    1418:	ffff5537          	lui	a0,0xffff5
    141c:	afc50513          	addi	a0,a0,-1284 # ffff4afc <_data_strings+0x7ffefe34>
    1420:	00300593          	li	a1,3
    1424:	00b50633          	add	a2,a0,a1
    1428:	30c0ae23          	sw	a2,796(ra)

0000142c <inst_233>:
    142c:	ffff5537          	lui	a0,0xffff5
    1430:	afc50513          	addi	a0,a0,-1284 # ffff4afc <_data_strings+0x7ffefe34>
    1434:	555555b7          	lui	a1,0x55555
    1438:	55558593          	addi	a1,a1,1365 # 55555555 <_data_lma+0x5555218d>
    143c:	00b50633          	add	a2,a0,a1
    1440:	32c0a023          	sw	a2,800(ra)

00001444 <inst_234>:
    1444:	ffff5537          	lui	a0,0xffff5
    1448:	afc50513          	addi	a0,a0,-1284 # ffff4afc <_data_strings+0x7ffefe34>
    144c:	aaaab5b7          	lui	a1,0xaaaab
    1450:	aaa58593          	addi	a1,a1,-1366 # aaaaaaaa <_data_strings+0x2aaa5de2>
    1454:	00b50633          	add	a2,a0,a1
    1458:	32c0a223          	sw	a2,804(ra)

0000145c <inst_235>:
    145c:	ffff5537          	lui	a0,0xffff5
    1460:	afc50513          	addi	a0,a0,-1284 # ffff4afc <_data_strings+0x7ffefe34>
    1464:	00500593          	li	a1,5
    1468:	00b50633          	add	a2,a0,a1
    146c:	32c0a423          	sw	a2,808(ra)

00001470 <inst_236>:
    1470:	ffff5537          	lui	a0,0xffff5
    1474:	afc50513          	addi	a0,a0,-1284 # ffff4afc <_data_strings+0x7ffefe34>
    1478:	333335b7          	lui	a1,0x33333
    147c:	33358593          	addi	a1,a1,819 # 33333333 <_data_lma+0x3332ff6b>
    1480:	00b50633          	add	a2,a0,a1
    1484:	32c0a623          	sw	a2,812(ra)

00001488 <inst_237>:
    1488:	ffff5537          	lui	a0,0xffff5
    148c:	afc50513          	addi	a0,a0,-1284 # ffff4afc <_data_strings+0x7ffefe34>
    1490:	666665b7          	lui	a1,0x66666
    1494:	66658593          	addi	a1,a1,1638 # 66666666 <_data_lma+0x6666329e>
    1498:	00b50633          	add	a2,a0,a1
    149c:	32c0a823          	sw	a2,816(ra)

000014a0 <inst_238>:
    14a0:	ffff5537          	lui	a0,0xffff5
    14a4:	afc50513          	addi	a0,a0,-1284 # ffff4afc <_data_strings+0x7ffefe34>
    14a8:	ffff55b7          	lui	a1,0xffff5
    14ac:	afc58593          	addi	a1,a1,-1284 # ffff4afc <_data_strings+0x7ffefe34>
    14b0:	00b50633          	add	a2,a0,a1
    14b4:	32c0aa23          	sw	a2,820(ra)

000014b8 <inst_239>:
    14b8:	ffff5537          	lui	a0,0xffff5
    14bc:	afc50513          	addi	a0,a0,-1284 # ffff4afc <_data_strings+0x7ffefe34>
    14c0:	0000b5b7          	lui	a1,0xb
    14c4:	50458593          	addi	a1,a1,1284 # b504 <_data_lma+0x813c>
    14c8:	00b50633          	add	a2,a0,a1
    14cc:	32c0ac23          	sw	a2,824(ra)

000014d0 <inst_240>:
    14d0:	ffff5537          	lui	a0,0xffff5
    14d4:	afc50513          	addi	a0,a0,-1284 # ffff4afc <_data_strings+0x7ffefe34>
    14d8:	00200593          	li	a1,2
    14dc:	00b50633          	add	a2,a0,a1
    14e0:	32c0ae23          	sw	a2,828(ra)

000014e4 <inst_241>:
    14e4:	ffff5537          	lui	a0,0xffff5
    14e8:	afc50513          	addi	a0,a0,-1284 # ffff4afc <_data_strings+0x7ffefe34>
    14ec:	555555b7          	lui	a1,0x55555
    14f0:	55458593          	addi	a1,a1,1364 # 55555554 <_data_lma+0x5555218c>
    14f4:	00b50633          	add	a2,a0,a1
    14f8:	34c0a023          	sw	a2,832(ra)

000014fc <inst_242>:
    14fc:	ffff5537          	lui	a0,0xffff5
    1500:	afc50513          	addi	a0,a0,-1284 # ffff4afc <_data_strings+0x7ffefe34>
    1504:	00000593          	li	a1,0
    1508:	00b50633          	add	a2,a0,a1
    150c:	34c0a223          	sw	a2,836(ra)

00001510 <inst_243>:
    1510:	ffff5537          	lui	a0,0xffff5
    1514:	afc50513          	addi	a0,a0,-1284 # ffff4afc <_data_strings+0x7ffefe34>
    1518:	00400593          	li	a1,4
    151c:	00b50633          	add	a2,a0,a1
    1520:	34c0a423          	sw	a2,840(ra)

00001524 <inst_244>:
    1524:	ffff5537          	lui	a0,0xffff5
    1528:	afc50513          	addi	a0,a0,-1284 # ffff4afc <_data_strings+0x7ffefe34>
    152c:	333335b7          	lui	a1,0x33333
    1530:	33258593          	addi	a1,a1,818 # 33333332 <_data_lma+0x3332ff6a>
    1534:	00b50633          	add	a2,a0,a1
    1538:	34c0a623          	sw	a2,844(ra)

0000153c <inst_245>:
    153c:	ffff5537          	lui	a0,0xffff5
    1540:	afc50513          	addi	a0,a0,-1284 # ffff4afc <_data_strings+0x7ffefe34>
    1544:	666665b7          	lui	a1,0x66666
    1548:	66558593          	addi	a1,a1,1637 # 66666665 <_data_lma+0x6666329d>
    154c:	00b50633          	add	a2,a0,a1
    1550:	34c0a823          	sw	a2,848(ra)

00001554 <inst_246>:
    1554:	ffff5537          	lui	a0,0xffff5
    1558:	afc50513          	addi	a0,a0,-1284 # ffff4afc <_data_strings+0x7ffefe34>
    155c:	0000b5b7          	lui	a1,0xb
    1560:	50358593          	addi	a1,a1,1283 # b503 <_data_lma+0x813b>
    1564:	00b50633          	add	a2,a0,a1
    1568:	34c0aa23          	sw	a2,852(ra)

0000156c <inst_247>:
    156c:	ffff5537          	lui	a0,0xffff5
    1570:	afc50513          	addi	a0,a0,-1284 # ffff4afc <_data_strings+0x7ffefe34>
    1574:	555555b7          	lui	a1,0x55555
    1578:	55658593          	addi	a1,a1,1366 # 55555556 <_data_lma+0x5555218e>
    157c:	00b50633          	add	a2,a0,a1
    1580:	34c0ac23          	sw	a2,856(ra)

00001584 <inst_248>:
    1584:	ffff5537          	lui	a0,0xffff5
    1588:	afc50513          	addi	a0,a0,-1284 # ffff4afc <_data_strings+0x7ffefe34>
    158c:	aaaab5b7          	lui	a1,0xaaaab
    1590:	aab58593          	addi	a1,a1,-1365 # aaaaaaab <_data_strings+0x2aaa5de3>
    1594:	00b50633          	add	a2,a0,a1
    1598:	34c0ae23          	sw	a2,860(ra)

0000159c <inst_249>:
    159c:	ffff5537          	lui	a0,0xffff5
    15a0:	afc50513          	addi	a0,a0,-1284 # ffff4afc <_data_strings+0x7ffefe34>
    15a4:	00600593          	li	a1,6
    15a8:	00b50633          	add	a2,a0,a1
    15ac:	36c0a023          	sw	a2,864(ra)

000015b0 <inst_250>:
    15b0:	ffff5537          	lui	a0,0xffff5
    15b4:	afc50513          	addi	a0,a0,-1284 # ffff4afc <_data_strings+0x7ffefe34>
    15b8:	333335b7          	lui	a1,0x33333
    15bc:	33458593          	addi	a1,a1,820 # 33333334 <_data_lma+0x3332ff6c>
    15c0:	00b50633          	add	a2,a0,a1
    15c4:	36c0a223          	sw	a2,868(ra)

000015c8 <inst_251>:
    15c8:	ffff5537          	lui	a0,0xffff5
    15cc:	afc50513          	addi	a0,a0,-1284 # ffff4afc <_data_strings+0x7ffefe34>
    15d0:	666665b7          	lui	a1,0x66666
    15d4:	66758593          	addi	a1,a1,1639 # 66666667 <_data_lma+0x6666329f>
    15d8:	00b50633          	add	a2,a0,a1
    15dc:	36c0a423          	sw	a2,872(ra)

000015e0 <inst_252>:
    15e0:	ffff5537          	lui	a0,0xffff5
    15e4:	afc50513          	addi	a0,a0,-1284 # ffff4afc <_data_strings+0x7ffefe34>
    15e8:	ffff55b7          	lui	a1,0xffff5
    15ec:	afd58593          	addi	a1,a1,-1283 # ffff4afd <_data_strings+0x7ffefe35>
    15f0:	00b50633          	add	a2,a0,a1
    15f4:	36c0a623          	sw	a2,876(ra)

000015f8 <inst_253>:
    15f8:	ffff5537          	lui	a0,0xffff5
    15fc:	afc50513          	addi	a0,a0,-1284 # ffff4afc <_data_strings+0x7ffefe34>
    1600:	0000b5b7          	lui	a1,0xb
    1604:	50558593          	addi	a1,a1,1285 # b505 <_data_lma+0x813d>
    1608:	00b50633          	add	a2,a0,a1
    160c:	36c0a823          	sw	a2,880(ra)

00001610 <inst_254>:
    1610:	0000b537          	lui	a0,0xb
    1614:	50450513          	addi	a0,a0,1284 # b504 <_data_lma+0x813c>
    1618:	00300593          	li	a1,3
    161c:	00b50633          	add	a2,a0,a1
    1620:	36c0aa23          	sw	a2,884(ra)

00001624 <inst_255>:
    1624:	0000b537          	lui	a0,0xb
    1628:	50450513          	addi	a0,a0,1284 # b504 <_data_lma+0x813c>
    162c:	555555b7          	lui	a1,0x55555
    1630:	55558593          	addi	a1,a1,1365 # 55555555 <_data_lma+0x5555218d>
    1634:	00b50633          	add	a2,a0,a1
    1638:	36c0ac23          	sw	a2,888(ra)

0000163c <inst_256>:
    163c:	0000b537          	lui	a0,0xb
    1640:	50450513          	addi	a0,a0,1284 # b504 <_data_lma+0x813c>
    1644:	aaaab5b7          	lui	a1,0xaaaab
    1648:	aaa58593          	addi	a1,a1,-1366 # aaaaaaaa <_data_strings+0x2aaa5de2>
    164c:	00b50633          	add	a2,a0,a1
    1650:	36c0ae23          	sw	a2,892(ra)

00001654 <inst_257>:
    1654:	0000b537          	lui	a0,0xb
    1658:	50450513          	addi	a0,a0,1284 # b504 <_data_lma+0x813c>
    165c:	00500593          	li	a1,5
    1660:	00b50633          	add	a2,a0,a1
    1664:	38c0a023          	sw	a2,896(ra)

00001668 <inst_258>:
    1668:	0000b537          	lui	a0,0xb
    166c:	50450513          	addi	a0,a0,1284 # b504 <_data_lma+0x813c>
    1670:	333335b7          	lui	a1,0x33333
    1674:	33358593          	addi	a1,a1,819 # 33333333 <_data_lma+0x3332ff6b>
    1678:	00b50633          	add	a2,a0,a1
    167c:	38c0a223          	sw	a2,900(ra)

00001680 <inst_259>:
    1680:	0000b537          	lui	a0,0xb
    1684:	50450513          	addi	a0,a0,1284 # b504 <_data_lma+0x813c>
    1688:	666665b7          	lui	a1,0x66666
    168c:	66658593          	addi	a1,a1,1638 # 66666666 <_data_lma+0x6666329e>
    1690:	00b50633          	add	a2,a0,a1
    1694:	38c0a423          	sw	a2,904(ra)

00001698 <inst_260>:
    1698:	0000b537          	lui	a0,0xb
    169c:	50450513          	addi	a0,a0,1284 # b504 <_data_lma+0x813c>
    16a0:	ffff55b7          	lui	a1,0xffff5
    16a4:	afc58593          	addi	a1,a1,-1284 # ffff4afc <_data_strings+0x7ffefe34>
    16a8:	00b50633          	add	a2,a0,a1
    16ac:	38c0a623          	sw	a2,908(ra)

000016b0 <inst_261>:
    16b0:	0000b537          	lui	a0,0xb
    16b4:	50450513          	addi	a0,a0,1284 # b504 <_data_lma+0x813c>
    16b8:	0000b5b7          	lui	a1,0xb
    16bc:	50458593          	addi	a1,a1,1284 # b504 <_data_lma+0x813c>
    16c0:	00b50633          	add	a2,a0,a1
    16c4:	38c0a823          	sw	a2,912(ra)

000016c8 <inst_262>:
    16c8:	0000b537          	lui	a0,0xb
    16cc:	50450513          	addi	a0,a0,1284 # b504 <_data_lma+0x813c>
    16d0:	00200593          	li	a1,2
    16d4:	00b50633          	add	a2,a0,a1
    16d8:	38c0aa23          	sw	a2,916(ra)

000016dc <inst_263>:
    16dc:	0000b537          	lui	a0,0xb
    16e0:	50450513          	addi	a0,a0,1284 # b504 <_data_lma+0x813c>
    16e4:	555555b7          	lui	a1,0x55555
    16e8:	55458593          	addi	a1,a1,1364 # 55555554 <_data_lma+0x5555218c>
    16ec:	00b50633          	add	a2,a0,a1
    16f0:	38c0ac23          	sw	a2,920(ra)

000016f4 <inst_264>:
    16f4:	0000b537          	lui	a0,0xb
    16f8:	50450513          	addi	a0,a0,1284 # b504 <_data_lma+0x813c>
    16fc:	00000593          	li	a1,0
    1700:	00b50633          	add	a2,a0,a1
    1704:	38c0ae23          	sw	a2,924(ra)

00001708 <inst_265>:
    1708:	0000b537          	lui	a0,0xb
    170c:	50450513          	addi	a0,a0,1284 # b504 <_data_lma+0x813c>
    1710:	00400593          	li	a1,4
    1714:	00b50633          	add	a2,a0,a1
    1718:	3ac0a023          	sw	a2,928(ra)

0000171c <inst_266>:
    171c:	0000b537          	lui	a0,0xb
    1720:	50450513          	addi	a0,a0,1284 # b504 <_data_lma+0x813c>
    1724:	333335b7          	lui	a1,0x33333
    1728:	33258593          	addi	a1,a1,818 # 33333332 <_data_lma+0x3332ff6a>
    172c:	00b50633          	add	a2,a0,a1
    1730:	3ac0a223          	sw	a2,932(ra)

00001734 <inst_267>:
    1734:	0000b537          	lui	a0,0xb
    1738:	50450513          	addi	a0,a0,1284 # b504 <_data_lma+0x813c>
    173c:	666665b7          	lui	a1,0x66666
    1740:	66558593          	addi	a1,a1,1637 # 66666665 <_data_lma+0x6666329d>
    1744:	00b50633          	add	a2,a0,a1
    1748:	3ac0a423          	sw	a2,936(ra)

0000174c <inst_268>:
    174c:	0000b537          	lui	a0,0xb
    1750:	50450513          	addi	a0,a0,1284 # b504 <_data_lma+0x813c>
    1754:	0000b5b7          	lui	a1,0xb
    1758:	50358593          	addi	a1,a1,1283 # b503 <_data_lma+0x813b>
    175c:	00b50633          	add	a2,a0,a1
    1760:	3ac0a623          	sw	a2,940(ra)

00001764 <inst_269>:
    1764:	0000b537          	lui	a0,0xb
    1768:	50450513          	addi	a0,a0,1284 # b504 <_data_lma+0x813c>
    176c:	555555b7          	lui	a1,0x55555
    1770:	55658593          	addi	a1,a1,1366 # 55555556 <_data_lma+0x5555218e>
    1774:	00b50633          	add	a2,a0,a1
    1778:	3ac0a823          	sw	a2,944(ra)

0000177c <inst_270>:
    177c:	0000b537          	lui	a0,0xb
    1780:	50450513          	addi	a0,a0,1284 # b504 <_data_lma+0x813c>
    1784:	aaaab5b7          	lui	a1,0xaaaab
    1788:	aab58593          	addi	a1,a1,-1365 # aaaaaaab <_data_strings+0x2aaa5de3>
    178c:	00b50633          	add	a2,a0,a1
    1790:	3ac0aa23          	sw	a2,948(ra)

00001794 <inst_271>:
    1794:	0000b537          	lui	a0,0xb
    1798:	50450513          	addi	a0,a0,1284 # b504 <_data_lma+0x813c>
    179c:	00600593          	li	a1,6
    17a0:	00b50633          	add	a2,a0,a1
    17a4:	3ac0ac23          	sw	a2,952(ra)

000017a8 <inst_272>:
    17a8:	0000b537          	lui	a0,0xb
    17ac:	50450513          	addi	a0,a0,1284 # b504 <_data_lma+0x813c>
    17b0:	333335b7          	lui	a1,0x33333
    17b4:	33458593          	addi	a1,a1,820 # 33333334 <_data_lma+0x3332ff6c>
    17b8:	00b50633          	add	a2,a0,a1
    17bc:	3ac0ae23          	sw	a2,956(ra)

000017c0 <inst_273>:
    17c0:	0000b537          	lui	a0,0xb
    17c4:	50450513          	addi	a0,a0,1284 # b504 <_data_lma+0x813c>
    17c8:	666665b7          	lui	a1,0x66666
    17cc:	66758593          	addi	a1,a1,1639 # 66666667 <_data_lma+0x6666329f>
    17d0:	00b50633          	add	a2,a0,a1
    17d4:	3cc0a023          	sw	a2,960(ra)

000017d8 <inst_274>:
    17d8:	0000b537          	lui	a0,0xb
    17dc:	50450513          	addi	a0,a0,1284 # b504 <_data_lma+0x813c>
    17e0:	ffff55b7          	lui	a1,0xffff5
    17e4:	afd58593          	addi	a1,a1,-1283 # ffff4afd <_data_strings+0x7ffefe35>
    17e8:	00b50633          	add	a2,a0,a1
    17ec:	3cc0a223          	sw	a2,964(ra)

000017f0 <inst_275>:
    17f0:	0000b537          	lui	a0,0xb
    17f4:	50450513          	addi	a0,a0,1284 # b504 <_data_lma+0x813c>
    17f8:	0000b5b7          	lui	a1,0xb
    17fc:	50558593          	addi	a1,a1,1285 # b505 <_data_lma+0x813d>
    1800:	00b50633          	add	a2,a0,a1
    1804:	3cc0a423          	sw	a2,968(ra)

00001808 <inst_276>:
    1808:	00200513          	li	a0,2
    180c:	00300593          	li	a1,3
    1810:	00b50633          	add	a2,a0,a1
    1814:	3cc0a623          	sw	a2,972(ra)

00001818 <inst_277>:
    1818:	00200513          	li	a0,2
    181c:	555555b7          	lui	a1,0x55555
    1820:	55558593          	addi	a1,a1,1365 # 55555555 <_data_lma+0x5555218d>
    1824:	00b50633          	add	a2,a0,a1
    1828:	3cc0a823          	sw	a2,976(ra)

0000182c <inst_278>:
    182c:	00200513          	li	a0,2
    1830:	aaaab5b7          	lui	a1,0xaaaab
    1834:	aaa58593          	addi	a1,a1,-1366 # aaaaaaaa <_data_strings+0x2aaa5de2>
    1838:	00b50633          	add	a2,a0,a1
    183c:	3cc0aa23          	sw	a2,980(ra)

00001840 <inst_279>:
    1840:	00200513          	li	a0,2
    1844:	00500593          	li	a1,5
    1848:	00b50633          	add	a2,a0,a1
    184c:	3cc0ac23          	sw	a2,984(ra)

00001850 <inst_280>:
    1850:	00200513          	li	a0,2
    1854:	333335b7          	lui	a1,0x33333
    1858:	33358593          	addi	a1,a1,819 # 33333333 <_data_lma+0x3332ff6b>
    185c:	00b50633          	add	a2,a0,a1
    1860:	3cc0ae23          	sw	a2,988(ra)

00001864 <inst_281>:
    1864:	00200513          	li	a0,2
    1868:	666665b7          	lui	a1,0x66666
    186c:	66658593          	addi	a1,a1,1638 # 66666666 <_data_lma+0x6666329e>
    1870:	00b50633          	add	a2,a0,a1
    1874:	3ec0a023          	sw	a2,992(ra)

00001878 <inst_282>:
    1878:	00200513          	li	a0,2
    187c:	ffff55b7          	lui	a1,0xffff5
    1880:	afc58593          	addi	a1,a1,-1284 # ffff4afc <_data_strings+0x7ffefe34>
    1884:	00b50633          	add	a2,a0,a1
    1888:	3ec0a223          	sw	a2,996(ra)

0000188c <inst_283>:
    188c:	00200513          	li	a0,2
    1890:	0000b5b7          	lui	a1,0xb
    1894:	50458593          	addi	a1,a1,1284 # b504 <_data_lma+0x813c>
    1898:	00b50633          	add	a2,a0,a1
    189c:	3ec0a423          	sw	a2,1000(ra)

000018a0 <inst_284>:
    18a0:	00200513          	li	a0,2
    18a4:	00200593          	li	a1,2
    18a8:	00b50633          	add	a2,a0,a1
    18ac:	3ec0a623          	sw	a2,1004(ra)

000018b0 <inst_285>:
    18b0:	00200513          	li	a0,2
    18b4:	555555b7          	lui	a1,0x55555
    18b8:	55458593          	addi	a1,a1,1364 # 55555554 <_data_lma+0x5555218c>
    18bc:	00b50633          	add	a2,a0,a1
    18c0:	3ec0a823          	sw	a2,1008(ra)

000018c4 <inst_286>:
    18c4:	00200513          	li	a0,2
    18c8:	00000593          	li	a1,0
    18cc:	00b50633          	add	a2,a0,a1
    18d0:	3ec0aa23          	sw	a2,1012(ra)

000018d4 <inst_287>:
    18d4:	00200513          	li	a0,2
    18d8:	00400593          	li	a1,4
    18dc:	00b50633          	add	a2,a0,a1
    18e0:	3ec0ac23          	sw	a2,1016(ra)

000018e4 <inst_288>:
    18e4:	00200513          	li	a0,2
    18e8:	333335b7          	lui	a1,0x33333
    18ec:	33258593          	addi	a1,a1,818 # 33333332 <_data_lma+0x3332ff6a>
    18f0:	00b50633          	add	a2,a0,a1
    18f4:	3ec0ae23          	sw	a2,1020(ra)

000018f8 <inst_289>:
    18f8:	00200513          	li	a0,2
    18fc:	666665b7          	lui	a1,0x66666
    1900:	66558593          	addi	a1,a1,1637 # 66666665 <_data_lma+0x6666329d>
    1904:	00b50633          	add	a2,a0,a1
    1908:	40c0a023          	sw	a2,1024(ra)

0000190c <inst_290>:
    190c:	00200513          	li	a0,2
    1910:	0000b5b7          	lui	a1,0xb
    1914:	50358593          	addi	a1,a1,1283 # b503 <_data_lma+0x813b>
    1918:	00b50633          	add	a2,a0,a1
    191c:	40c0a223          	sw	a2,1028(ra)

00001920 <inst_291>:
    1920:	00200513          	li	a0,2
    1924:	555555b7          	lui	a1,0x55555
    1928:	55658593          	addi	a1,a1,1366 # 55555556 <_data_lma+0x5555218e>
    192c:	00b50633          	add	a2,a0,a1
    1930:	40c0a423          	sw	a2,1032(ra)

00001934 <inst_292>:
    1934:	00200513          	li	a0,2
    1938:	aaaab5b7          	lui	a1,0xaaaab
    193c:	aab58593          	addi	a1,a1,-1365 # aaaaaaab <_data_strings+0x2aaa5de3>
    1940:	00b50633          	add	a2,a0,a1
    1944:	40c0a623          	sw	a2,1036(ra)

00001948 <inst_293>:
    1948:	00200513          	li	a0,2
    194c:	00600593          	li	a1,6
    1950:	00b50633          	add	a2,a0,a1
    1954:	40c0a823          	sw	a2,1040(ra)

00001958 <inst_294>:
    1958:	00200513          	li	a0,2
    195c:	333335b7          	lui	a1,0x33333
    1960:	33458593          	addi	a1,a1,820 # 33333334 <_data_lma+0x3332ff6c>
    1964:	00b50633          	add	a2,a0,a1
    1968:	40c0aa23          	sw	a2,1044(ra)

0000196c <inst_295>:
    196c:	00200513          	li	a0,2
    1970:	666665b7          	lui	a1,0x66666
    1974:	66758593          	addi	a1,a1,1639 # 66666667 <_data_lma+0x6666329f>
    1978:	00b50633          	add	a2,a0,a1
    197c:	40c0ac23          	sw	a2,1048(ra)

00001980 <inst_296>:
    1980:	00200513          	li	a0,2
    1984:	ffff55b7          	lui	a1,0xffff5
    1988:	afd58593          	addi	a1,a1,-1283 # ffff4afd <_data_strings+0x7ffefe35>
    198c:	00b50633          	add	a2,a0,a1
    1990:	40c0ae23          	sw	a2,1052(ra)

00001994 <inst_297>:
    1994:	00200513          	li	a0,2
    1998:	0000b5b7          	lui	a1,0xb
    199c:	50558593          	addi	a1,a1,1285 # b505 <_data_lma+0x813d>
    19a0:	00b50633          	add	a2,a0,a1
    19a4:	42c0a023          	sw	a2,1056(ra)

000019a8 <inst_298>:
    19a8:	55555537          	lui	a0,0x55555
    19ac:	55450513          	addi	a0,a0,1364 # 55555554 <_data_lma+0x5555218c>
    19b0:	00300593          	li	a1,3
    19b4:	00b50633          	add	a2,a0,a1
    19b8:	42c0a223          	sw	a2,1060(ra)

000019bc <inst_299>:
    19bc:	55555537          	lui	a0,0x55555
    19c0:	55450513          	addi	a0,a0,1364 # 55555554 <_data_lma+0x5555218c>
    19c4:	555555b7          	lui	a1,0x55555
    19c8:	55558593          	addi	a1,a1,1365 # 55555555 <_data_lma+0x5555218d>
    19cc:	00b50633          	add	a2,a0,a1
    19d0:	42c0a423          	sw	a2,1064(ra)

000019d4 <inst_300>:
    19d4:	55555537          	lui	a0,0x55555
    19d8:	55450513          	addi	a0,a0,1364 # 55555554 <_data_lma+0x5555218c>
    19dc:	aaaab5b7          	lui	a1,0xaaaab
    19e0:	aaa58593          	addi	a1,a1,-1366 # aaaaaaaa <_data_strings+0x2aaa5de2>
    19e4:	00b50633          	add	a2,a0,a1
    19e8:	42c0a623          	sw	a2,1068(ra)

000019ec <inst_301>:
    19ec:	55555537          	lui	a0,0x55555
    19f0:	55450513          	addi	a0,a0,1364 # 55555554 <_data_lma+0x5555218c>
    19f4:	00500593          	li	a1,5
    19f8:	00b50633          	add	a2,a0,a1
    19fc:	42c0a823          	sw	a2,1072(ra)

00001a00 <inst_302>:
    1a00:	55555537          	lui	a0,0x55555
    1a04:	55450513          	addi	a0,a0,1364 # 55555554 <_data_lma+0x5555218c>
    1a08:	333335b7          	lui	a1,0x33333
    1a0c:	33358593          	addi	a1,a1,819 # 33333333 <_data_lma+0x3332ff6b>
    1a10:	00b50633          	add	a2,a0,a1
    1a14:	42c0aa23          	sw	a2,1076(ra)

00001a18 <inst_303>:
    1a18:	55555537          	lui	a0,0x55555
    1a1c:	55450513          	addi	a0,a0,1364 # 55555554 <_data_lma+0x5555218c>
    1a20:	666665b7          	lui	a1,0x66666
    1a24:	66658593          	addi	a1,a1,1638 # 66666666 <_data_lma+0x6666329e>
    1a28:	00b50633          	add	a2,a0,a1
    1a2c:	42c0ac23          	sw	a2,1080(ra)

00001a30 <inst_304>:
    1a30:	55555537          	lui	a0,0x55555
    1a34:	55450513          	addi	a0,a0,1364 # 55555554 <_data_lma+0x5555218c>
    1a38:	ffff55b7          	lui	a1,0xffff5
    1a3c:	afc58593          	addi	a1,a1,-1284 # ffff4afc <_data_strings+0x7ffefe34>
    1a40:	00b50633          	add	a2,a0,a1
    1a44:	42c0ae23          	sw	a2,1084(ra)

00001a48 <inst_305>:
    1a48:	55555537          	lui	a0,0x55555
    1a4c:	55450513          	addi	a0,a0,1364 # 55555554 <_data_lma+0x5555218c>
    1a50:	0000b5b7          	lui	a1,0xb
    1a54:	50458593          	addi	a1,a1,1284 # b504 <_data_lma+0x813c>
    1a58:	00b50633          	add	a2,a0,a1
    1a5c:	44c0a023          	sw	a2,1088(ra)

00001a60 <inst_306>:
    1a60:	55555537          	lui	a0,0x55555
    1a64:	55450513          	addi	a0,a0,1364 # 55555554 <_data_lma+0x5555218c>
    1a68:	00200593          	li	a1,2
    1a6c:	00b50633          	add	a2,a0,a1
    1a70:	44c0a223          	sw	a2,1092(ra)

00001a74 <inst_307>:
    1a74:	55555537          	lui	a0,0x55555
    1a78:	55450513          	addi	a0,a0,1364 # 55555554 <_data_lma+0x5555218c>
    1a7c:	555555b7          	lui	a1,0x55555
    1a80:	55458593          	addi	a1,a1,1364 # 55555554 <_data_lma+0x5555218c>
    1a84:	00b50633          	add	a2,a0,a1
    1a88:	44c0a423          	sw	a2,1096(ra)

00001a8c <inst_308>:
    1a8c:	55555537          	lui	a0,0x55555
    1a90:	55450513          	addi	a0,a0,1364 # 55555554 <_data_lma+0x5555218c>
    1a94:	00000593          	li	a1,0
    1a98:	00b50633          	add	a2,a0,a1
    1a9c:	44c0a623          	sw	a2,1100(ra)

00001aa0 <inst_309>:
    1aa0:	55555537          	lui	a0,0x55555
    1aa4:	55450513          	addi	a0,a0,1364 # 55555554 <_data_lma+0x5555218c>
    1aa8:	00400593          	li	a1,4
    1aac:	00b50633          	add	a2,a0,a1
    1ab0:	44c0a823          	sw	a2,1104(ra)

00001ab4 <inst_310>:
    1ab4:	55555537          	lui	a0,0x55555
    1ab8:	55450513          	addi	a0,a0,1364 # 55555554 <_data_lma+0x5555218c>
    1abc:	333335b7          	lui	a1,0x33333
    1ac0:	33258593          	addi	a1,a1,818 # 33333332 <_data_lma+0x3332ff6a>
    1ac4:	00b50633          	add	a2,a0,a1
    1ac8:	44c0aa23          	sw	a2,1108(ra)

00001acc <inst_311>:
    1acc:	55555537          	lui	a0,0x55555
    1ad0:	55450513          	addi	a0,a0,1364 # 55555554 <_data_lma+0x5555218c>
    1ad4:	666665b7          	lui	a1,0x66666
    1ad8:	66558593          	addi	a1,a1,1637 # 66666665 <_data_lma+0x6666329d>
    1adc:	00b50633          	add	a2,a0,a1
    1ae0:	44c0ac23          	sw	a2,1112(ra)

00001ae4 <inst_312>:
    1ae4:	55555537          	lui	a0,0x55555
    1ae8:	55450513          	addi	a0,a0,1364 # 55555554 <_data_lma+0x5555218c>
    1aec:	0000b5b7          	lui	a1,0xb
    1af0:	50358593          	addi	a1,a1,1283 # b503 <_data_lma+0x813b>
    1af4:	00b50633          	add	a2,a0,a1
    1af8:	44c0ae23          	sw	a2,1116(ra)

00001afc <inst_313>:
    1afc:	55555537          	lui	a0,0x55555
    1b00:	55450513          	addi	a0,a0,1364 # 55555554 <_data_lma+0x5555218c>
    1b04:	555555b7          	lui	a1,0x55555
    1b08:	55658593          	addi	a1,a1,1366 # 55555556 <_data_lma+0x5555218e>
    1b0c:	00b50633          	add	a2,a0,a1
    1b10:	46c0a023          	sw	a2,1120(ra)

00001b14 <inst_314>:
    1b14:	55555537          	lui	a0,0x55555
    1b18:	55450513          	addi	a0,a0,1364 # 55555554 <_data_lma+0x5555218c>
    1b1c:	aaaab5b7          	lui	a1,0xaaaab
    1b20:	aab58593          	addi	a1,a1,-1365 # aaaaaaab <_data_strings+0x2aaa5de3>
    1b24:	00b50633          	add	a2,a0,a1
    1b28:	46c0a223          	sw	a2,1124(ra)

00001b2c <inst_315>:
    1b2c:	55555537          	lui	a0,0x55555
    1b30:	55450513          	addi	a0,a0,1364 # 55555554 <_data_lma+0x5555218c>
    1b34:	00600593          	li	a1,6
    1b38:	00b50633          	add	a2,a0,a1
    1b3c:	46c0a423          	sw	a2,1128(ra)

00001b40 <inst_316>:
    1b40:	55555537          	lui	a0,0x55555
    1b44:	55450513          	addi	a0,a0,1364 # 55555554 <_data_lma+0x5555218c>
    1b48:	333335b7          	lui	a1,0x33333
    1b4c:	33458593          	addi	a1,a1,820 # 33333334 <_data_lma+0x3332ff6c>
    1b50:	00b50633          	add	a2,a0,a1
    1b54:	46c0a623          	sw	a2,1132(ra)

00001b58 <inst_317>:
    1b58:	55555537          	lui	a0,0x55555
    1b5c:	55450513          	addi	a0,a0,1364 # 55555554 <_data_lma+0x5555218c>
    1b60:	666665b7          	lui	a1,0x66666
    1b64:	66758593          	addi	a1,a1,1639 # 66666667 <_data_lma+0x6666329f>
    1b68:	00b50633          	add	a2,a0,a1
    1b6c:	46c0a823          	sw	a2,1136(ra)

00001b70 <inst_318>:
    1b70:	55555537          	lui	a0,0x55555
    1b74:	55450513          	addi	a0,a0,1364 # 55555554 <_data_lma+0x5555218c>
    1b78:	ffff55b7          	lui	a1,0xffff5
    1b7c:	afd58593          	addi	a1,a1,-1283 # ffff4afd <_data_strings+0x7ffefe35>
    1b80:	00b50633          	add	a2,a0,a1
    1b84:	46c0aa23          	sw	a2,1140(ra)

00001b88 <inst_319>:
    1b88:	55555537          	lui	a0,0x55555
    1b8c:	55450513          	addi	a0,a0,1364 # 55555554 <_data_lma+0x5555218c>
    1b90:	0000b5b7          	lui	a1,0xb
    1b94:	50558593          	addi	a1,a1,1285 # b505 <_data_lma+0x813d>
    1b98:	00b50633          	add	a2,a0,a1
    1b9c:	46c0ac23          	sw	a2,1144(ra)

00001ba0 <inst_320>:
    1ba0:	00000513          	li	a0,0
    1ba4:	00300593          	li	a1,3
    1ba8:	00b50633          	add	a2,a0,a1
    1bac:	46c0ae23          	sw	a2,1148(ra)

00001bb0 <inst_321>:
    1bb0:	00000513          	li	a0,0
    1bb4:	555555b7          	lui	a1,0x55555
    1bb8:	55558593          	addi	a1,a1,1365 # 55555555 <_data_lma+0x5555218d>
    1bbc:	00b50633          	add	a2,a0,a1
    1bc0:	48c0a023          	sw	a2,1152(ra)

00001bc4 <inst_322>:
    1bc4:	00000513          	li	a0,0
    1bc8:	aaaab5b7          	lui	a1,0xaaaab
    1bcc:	aaa58593          	addi	a1,a1,-1366 # aaaaaaaa <_data_strings+0x2aaa5de2>
    1bd0:	00b50633          	add	a2,a0,a1
    1bd4:	48c0a223          	sw	a2,1156(ra)

00001bd8 <inst_323>:
    1bd8:	00000513          	li	a0,0
    1bdc:	00500593          	li	a1,5
    1be0:	00b50633          	add	a2,a0,a1
    1be4:	48c0a423          	sw	a2,1160(ra)

00001be8 <inst_324>:
    1be8:	00000513          	li	a0,0
    1bec:	333335b7          	lui	a1,0x33333
    1bf0:	33358593          	addi	a1,a1,819 # 33333333 <_data_lma+0x3332ff6b>
    1bf4:	00b50633          	add	a2,a0,a1
    1bf8:	48c0a623          	sw	a2,1164(ra)

00001bfc <inst_325>:
    1bfc:	00000513          	li	a0,0
    1c00:	666665b7          	lui	a1,0x66666
    1c04:	66658593          	addi	a1,a1,1638 # 66666666 <_data_lma+0x6666329e>
    1c08:	00b50633          	add	a2,a0,a1
    1c0c:	48c0a823          	sw	a2,1168(ra)

00001c10 <inst_326>:
    1c10:	00000513          	li	a0,0
    1c14:	ffff55b7          	lui	a1,0xffff5
    1c18:	afc58593          	addi	a1,a1,-1284 # ffff4afc <_data_strings+0x7ffefe34>
    1c1c:	00b50633          	add	a2,a0,a1
    1c20:	48c0aa23          	sw	a2,1172(ra)

00001c24 <inst_327>:
    1c24:	00000513          	li	a0,0
    1c28:	0000b5b7          	lui	a1,0xb
    1c2c:	50458593          	addi	a1,a1,1284 # b504 <_data_lma+0x813c>
    1c30:	00b50633          	add	a2,a0,a1
    1c34:	48c0ac23          	sw	a2,1176(ra)

00001c38 <inst_328>:
    1c38:	aaaab537          	lui	a0,0xaaaab
    1c3c:	aab50513          	addi	a0,a0,-1365 # aaaaaaab <_data_strings+0x2aaa5de3>
    1c40:	aaaab5b7          	lui	a1,0xaaaab
    1c44:	aab58593          	addi	a1,a1,-1365 # aaaaaaab <_data_strings+0x2aaa5de3>
    1c48:	00b50633          	add	a2,a0,a1
    1c4c:	48c0ae23          	sw	a2,1180(ra)

00001c50 <inst_329>:
    1c50:	aaaab537          	lui	a0,0xaaaab
    1c54:	aab50513          	addi	a0,a0,-1365 # aaaaaaab <_data_strings+0x2aaa5de3>
    1c58:	00600593          	li	a1,6
    1c5c:	00b50633          	add	a2,a0,a1
    1c60:	4ac0a023          	sw	a2,1184(ra)

00001c64 <inst_330>:
    1c64:	aaaab537          	lui	a0,0xaaaab
    1c68:	aab50513          	addi	a0,a0,-1365 # aaaaaaab <_data_strings+0x2aaa5de3>
    1c6c:	333335b7          	lui	a1,0x33333
    1c70:	33458593          	addi	a1,a1,820 # 33333334 <_data_lma+0x3332ff6c>
    1c74:	00b50633          	add	a2,a0,a1
    1c78:	4ac0a223          	sw	a2,1188(ra)

00001c7c <inst_331>:
    1c7c:	aaaab537          	lui	a0,0xaaaab
    1c80:	aab50513          	addi	a0,a0,-1365 # aaaaaaab <_data_strings+0x2aaa5de3>
    1c84:	666665b7          	lui	a1,0x66666
    1c88:	66758593          	addi	a1,a1,1639 # 66666667 <_data_lma+0x6666329f>
    1c8c:	00b50633          	add	a2,a0,a1
    1c90:	4ac0a423          	sw	a2,1192(ra)

00001c94 <inst_332>:
    1c94:	aaaab537          	lui	a0,0xaaaab
    1c98:	aab50513          	addi	a0,a0,-1365 # aaaaaaab <_data_strings+0x2aaa5de3>
    1c9c:	ffff55b7          	lui	a1,0xffff5
    1ca0:	afd58593          	addi	a1,a1,-1283 # ffff4afd <_data_strings+0x7ffefe35>
    1ca4:	00b50633          	add	a2,a0,a1
    1ca8:	4ac0a623          	sw	a2,1196(ra)

00001cac <inst_333>:
    1cac:	aaaab537          	lui	a0,0xaaaab
    1cb0:	aab50513          	addi	a0,a0,-1365 # aaaaaaab <_data_strings+0x2aaa5de3>
    1cb4:	0000b5b7          	lui	a1,0xb
    1cb8:	50558593          	addi	a1,a1,1285 # b505 <_data_lma+0x813d>
    1cbc:	00b50633          	add	a2,a0,a1
    1cc0:	4ac0a823          	sw	a2,1200(ra)

00001cc4 <inst_334>:
    1cc4:	00600513          	li	a0,6
    1cc8:	00300593          	li	a1,3
    1ccc:	00b50633          	add	a2,a0,a1
    1cd0:	4ac0aa23          	sw	a2,1204(ra)

00001cd4 <inst_335>:
    1cd4:	00600513          	li	a0,6
    1cd8:	555555b7          	lui	a1,0x55555
    1cdc:	55558593          	addi	a1,a1,1365 # 55555555 <_data_lma+0x5555218d>
    1ce0:	00b50633          	add	a2,a0,a1
    1ce4:	4ac0ac23          	sw	a2,1208(ra)

00001ce8 <inst_336>:
    1ce8:	00600513          	li	a0,6
    1cec:	aaaab5b7          	lui	a1,0xaaaab
    1cf0:	aaa58593          	addi	a1,a1,-1366 # aaaaaaaa <_data_strings+0x2aaa5de2>
    1cf4:	00b50633          	add	a2,a0,a1
    1cf8:	4ac0ae23          	sw	a2,1212(ra)

00001cfc <inst_337>:
    1cfc:	00600513          	li	a0,6
    1d00:	00500593          	li	a1,5
    1d04:	00b50633          	add	a2,a0,a1
    1d08:	4cc0a023          	sw	a2,1216(ra)

00001d0c <inst_338>:
    1d0c:	00600513          	li	a0,6
    1d10:	333335b7          	lui	a1,0x33333
    1d14:	33358593          	addi	a1,a1,819 # 33333333 <_data_lma+0x3332ff6b>
    1d18:	00b50633          	add	a2,a0,a1
    1d1c:	4cc0a223          	sw	a2,1220(ra)

00001d20 <inst_339>:
    1d20:	00600513          	li	a0,6
    1d24:	666665b7          	lui	a1,0x66666
    1d28:	66658593          	addi	a1,a1,1638 # 66666666 <_data_lma+0x6666329e>
    1d2c:	00b50633          	add	a2,a0,a1
    1d30:	4cc0a423          	sw	a2,1224(ra)

00001d34 <inst_340>:
    1d34:	00600513          	li	a0,6
    1d38:	ffff55b7          	lui	a1,0xffff5
    1d3c:	afc58593          	addi	a1,a1,-1284 # ffff4afc <_data_strings+0x7ffefe34>
    1d40:	00b50633          	add	a2,a0,a1
    1d44:	4cc0a623          	sw	a2,1228(ra)

00001d48 <inst_341>:
    1d48:	00600513          	li	a0,6
    1d4c:	0000b5b7          	lui	a1,0xb
    1d50:	50458593          	addi	a1,a1,1284 # b504 <_data_lma+0x813c>
    1d54:	00b50633          	add	a2,a0,a1
    1d58:	4cc0a823          	sw	a2,1232(ra)

00001d5c <inst_342>:
    1d5c:	00600513          	li	a0,6
    1d60:	00200593          	li	a1,2
    1d64:	00b50633          	add	a2,a0,a1
    1d68:	4cc0aa23          	sw	a2,1236(ra)

00001d6c <inst_343>:
    1d6c:	00600513          	li	a0,6
    1d70:	555555b7          	lui	a1,0x55555
    1d74:	55458593          	addi	a1,a1,1364 # 55555554 <_data_lma+0x5555218c>
    1d78:	00b50633          	add	a2,a0,a1
    1d7c:	4cc0ac23          	sw	a2,1240(ra)

00001d80 <inst_344>:
    1d80:	00600513          	li	a0,6
    1d84:	00000593          	li	a1,0
    1d88:	00b50633          	add	a2,a0,a1
    1d8c:	4cc0ae23          	sw	a2,1244(ra)

00001d90 <inst_345>:
    1d90:	00600513          	li	a0,6
    1d94:	00400593          	li	a1,4
    1d98:	00b50633          	add	a2,a0,a1
    1d9c:	4ec0a023          	sw	a2,1248(ra)

00001da0 <inst_346>:
    1da0:	00600513          	li	a0,6
    1da4:	333335b7          	lui	a1,0x33333
    1da8:	33258593          	addi	a1,a1,818 # 33333332 <_data_lma+0x3332ff6a>
    1dac:	00b50633          	add	a2,a0,a1
    1db0:	4ec0a223          	sw	a2,1252(ra)

00001db4 <inst_347>:
    1db4:	00600513          	li	a0,6
    1db8:	666665b7          	lui	a1,0x66666
    1dbc:	66558593          	addi	a1,a1,1637 # 66666665 <_data_lma+0x6666329d>
    1dc0:	00b50633          	add	a2,a0,a1
    1dc4:	4ec0a423          	sw	a2,1256(ra)

00001dc8 <inst_348>:
    1dc8:	00600513          	li	a0,6
    1dcc:	0000b5b7          	lui	a1,0xb
    1dd0:	50358593          	addi	a1,a1,1283 # b503 <_data_lma+0x813b>
    1dd4:	00b50633          	add	a2,a0,a1
    1dd8:	4ec0a623          	sw	a2,1260(ra)

00001ddc <inst_349>:
    1ddc:	00600513          	li	a0,6
    1de0:	555555b7          	lui	a1,0x55555
    1de4:	55658593          	addi	a1,a1,1366 # 55555556 <_data_lma+0x5555218e>
    1de8:	00b50633          	add	a2,a0,a1
    1dec:	4ec0a823          	sw	a2,1264(ra)

00001df0 <inst_350>:
    1df0:	00600513          	li	a0,6
    1df4:	aaaab5b7          	lui	a1,0xaaaab
    1df8:	aab58593          	addi	a1,a1,-1365 # aaaaaaab <_data_strings+0x2aaa5de3>
    1dfc:	00b50633          	add	a2,a0,a1
    1e00:	4ec0aa23          	sw	a2,1268(ra)

00001e04 <inst_351>:
    1e04:	00600513          	li	a0,6
    1e08:	00600593          	li	a1,6
    1e0c:	00b50633          	add	a2,a0,a1
    1e10:	4ec0ac23          	sw	a2,1272(ra)

00001e14 <inst_352>:
    1e14:	00600513          	li	a0,6
    1e18:	333335b7          	lui	a1,0x33333
    1e1c:	33458593          	addi	a1,a1,820 # 33333334 <_data_lma+0x3332ff6c>
    1e20:	00b50633          	add	a2,a0,a1
    1e24:	4ec0ae23          	sw	a2,1276(ra)

00001e28 <inst_353>:
    1e28:	00600513          	li	a0,6
    1e2c:	666665b7          	lui	a1,0x66666
    1e30:	66758593          	addi	a1,a1,1639 # 66666667 <_data_lma+0x6666329f>
    1e34:	00b50633          	add	a2,a0,a1
    1e38:	50c0a023          	sw	a2,1280(ra)

00001e3c <inst_354>:
    1e3c:	00600513          	li	a0,6
    1e40:	ffff55b7          	lui	a1,0xffff5
    1e44:	afd58593          	addi	a1,a1,-1283 # ffff4afd <_data_strings+0x7ffefe35>
    1e48:	00b50633          	add	a2,a0,a1
    1e4c:	50c0a223          	sw	a2,1284(ra)

00001e50 <inst_355>:
    1e50:	00600513          	li	a0,6
    1e54:	0000b5b7          	lui	a1,0xb
    1e58:	50558593          	addi	a1,a1,1285 # b505 <_data_lma+0x813d>
    1e5c:	00b50633          	add	a2,a0,a1
    1e60:	50c0a423          	sw	a2,1288(ra)

00001e64 <inst_356>:
    1e64:	33333537          	lui	a0,0x33333
    1e68:	33450513          	addi	a0,a0,820 # 33333334 <_data_lma+0x3332ff6c>
    1e6c:	00300593          	li	a1,3
    1e70:	00b50633          	add	a2,a0,a1
    1e74:	50c0a623          	sw	a2,1292(ra)

00001e78 <inst_357>:
    1e78:	33333537          	lui	a0,0x33333
    1e7c:	33450513          	addi	a0,a0,820 # 33333334 <_data_lma+0x3332ff6c>
    1e80:	555555b7          	lui	a1,0x55555
    1e84:	55558593          	addi	a1,a1,1365 # 55555555 <_data_lma+0x5555218d>
    1e88:	00b50633          	add	a2,a0,a1
    1e8c:	50c0a823          	sw	a2,1296(ra)

00001e90 <inst_358>:
    1e90:	33333537          	lui	a0,0x33333
    1e94:	33450513          	addi	a0,a0,820 # 33333334 <_data_lma+0x3332ff6c>
    1e98:	aaaab5b7          	lui	a1,0xaaaab
    1e9c:	aaa58593          	addi	a1,a1,-1366 # aaaaaaaa <_data_strings+0x2aaa5de2>
    1ea0:	00b50633          	add	a2,a0,a1
    1ea4:	50c0aa23          	sw	a2,1300(ra)

00001ea8 <inst_359>:
    1ea8:	33333537          	lui	a0,0x33333
    1eac:	33450513          	addi	a0,a0,820 # 33333334 <_data_lma+0x3332ff6c>
    1eb0:	00500593          	li	a1,5
    1eb4:	00b50633          	add	a2,a0,a1
    1eb8:	50c0ac23          	sw	a2,1304(ra)

00001ebc <inst_360>:
    1ebc:	33333537          	lui	a0,0x33333
    1ec0:	33450513          	addi	a0,a0,820 # 33333334 <_data_lma+0x3332ff6c>
    1ec4:	333335b7          	lui	a1,0x33333
    1ec8:	33358593          	addi	a1,a1,819 # 33333333 <_data_lma+0x3332ff6b>
    1ecc:	00b50633          	add	a2,a0,a1
    1ed0:	50c0ae23          	sw	a2,1308(ra)

00001ed4 <inst_361>:
    1ed4:	33333537          	lui	a0,0x33333
    1ed8:	33450513          	addi	a0,a0,820 # 33333334 <_data_lma+0x3332ff6c>
    1edc:	666665b7          	lui	a1,0x66666
    1ee0:	66658593          	addi	a1,a1,1638 # 66666666 <_data_lma+0x6666329e>
    1ee4:	00b50633          	add	a2,a0,a1
    1ee8:	52c0a023          	sw	a2,1312(ra)

00001eec <inst_362>:
    1eec:	33333537          	lui	a0,0x33333
    1ef0:	33450513          	addi	a0,a0,820 # 33333334 <_data_lma+0x3332ff6c>
    1ef4:	ffff55b7          	lui	a1,0xffff5
    1ef8:	afc58593          	addi	a1,a1,-1284 # ffff4afc <_data_strings+0x7ffefe34>
    1efc:	00b50633          	add	a2,a0,a1
    1f00:	52c0a223          	sw	a2,1316(ra)

00001f04 <inst_363>:
    1f04:	33333537          	lui	a0,0x33333
    1f08:	33450513          	addi	a0,a0,820 # 33333334 <_data_lma+0x3332ff6c>
    1f0c:	0000b5b7          	lui	a1,0xb
    1f10:	50458593          	addi	a1,a1,1284 # b504 <_data_lma+0x813c>
    1f14:	00b50633          	add	a2,a0,a1
    1f18:	52c0a423          	sw	a2,1320(ra)

00001f1c <inst_364>:
    1f1c:	33333537          	lui	a0,0x33333
    1f20:	33450513          	addi	a0,a0,820 # 33333334 <_data_lma+0x3332ff6c>
    1f24:	00200593          	li	a1,2
    1f28:	00b50633          	add	a2,a0,a1
    1f2c:	52c0a623          	sw	a2,1324(ra)

00001f30 <inst_365>:
    1f30:	33333537          	lui	a0,0x33333
    1f34:	33450513          	addi	a0,a0,820 # 33333334 <_data_lma+0x3332ff6c>
    1f38:	555555b7          	lui	a1,0x55555
    1f3c:	55458593          	addi	a1,a1,1364 # 55555554 <_data_lma+0x5555218c>
    1f40:	00b50633          	add	a2,a0,a1
    1f44:	52c0a823          	sw	a2,1328(ra)

00001f48 <inst_366>:
    1f48:	33333537          	lui	a0,0x33333
    1f4c:	33450513          	addi	a0,a0,820 # 33333334 <_data_lma+0x3332ff6c>
    1f50:	00000593          	li	a1,0
    1f54:	00b50633          	add	a2,a0,a1
    1f58:	52c0aa23          	sw	a2,1332(ra)

00001f5c <inst_367>:
    1f5c:	33333537          	lui	a0,0x33333
    1f60:	33450513          	addi	a0,a0,820 # 33333334 <_data_lma+0x3332ff6c>
    1f64:	00400593          	li	a1,4
    1f68:	00b50633          	add	a2,a0,a1
    1f6c:	52c0ac23          	sw	a2,1336(ra)

00001f70 <inst_368>:
    1f70:	33333537          	lui	a0,0x33333
    1f74:	33450513          	addi	a0,a0,820 # 33333334 <_data_lma+0x3332ff6c>
    1f78:	333335b7          	lui	a1,0x33333
    1f7c:	33258593          	addi	a1,a1,818 # 33333332 <_data_lma+0x3332ff6a>
    1f80:	00b50633          	add	a2,a0,a1
    1f84:	52c0ae23          	sw	a2,1340(ra)

00001f88 <inst_369>:
    1f88:	33333537          	lui	a0,0x33333
    1f8c:	33450513          	addi	a0,a0,820 # 33333334 <_data_lma+0x3332ff6c>
    1f90:	666665b7          	lui	a1,0x66666
    1f94:	66558593          	addi	a1,a1,1637 # 66666665 <_data_lma+0x6666329d>
    1f98:	00b50633          	add	a2,a0,a1
    1f9c:	54c0a023          	sw	a2,1344(ra)

00001fa0 <inst_370>:
    1fa0:	33333537          	lui	a0,0x33333
    1fa4:	33450513          	addi	a0,a0,820 # 33333334 <_data_lma+0x3332ff6c>
    1fa8:	0000b5b7          	lui	a1,0xb
    1fac:	50358593          	addi	a1,a1,1283 # b503 <_data_lma+0x813b>
    1fb0:	00b50633          	add	a2,a0,a1
    1fb4:	54c0a223          	sw	a2,1348(ra)

00001fb8 <inst_371>:
    1fb8:	33333537          	lui	a0,0x33333
    1fbc:	33450513          	addi	a0,a0,820 # 33333334 <_data_lma+0x3332ff6c>
    1fc0:	555555b7          	lui	a1,0x55555
    1fc4:	55658593          	addi	a1,a1,1366 # 55555556 <_data_lma+0x5555218e>
    1fc8:	00b50633          	add	a2,a0,a1
    1fcc:	54c0a423          	sw	a2,1352(ra)

00001fd0 <inst_372>:
    1fd0:	33333537          	lui	a0,0x33333
    1fd4:	33450513          	addi	a0,a0,820 # 33333334 <_data_lma+0x3332ff6c>
    1fd8:	aaaab5b7          	lui	a1,0xaaaab
    1fdc:	aab58593          	addi	a1,a1,-1365 # aaaaaaab <_data_strings+0x2aaa5de3>
    1fe0:	00b50633          	add	a2,a0,a1
    1fe4:	54c0a623          	sw	a2,1356(ra)

00001fe8 <inst_373>:
    1fe8:	33333537          	lui	a0,0x33333
    1fec:	33450513          	addi	a0,a0,820 # 33333334 <_data_lma+0x3332ff6c>
    1ff0:	00600593          	li	a1,6
    1ff4:	00b50633          	add	a2,a0,a1
    1ff8:	54c0a823          	sw	a2,1360(ra)

00001ffc <inst_374>:
    1ffc:	33333537          	lui	a0,0x33333
    2000:	33450513          	addi	a0,a0,820 # 33333334 <_data_lma+0x3332ff6c>
    2004:	333335b7          	lui	a1,0x33333
    2008:	33458593          	addi	a1,a1,820 # 33333334 <_data_lma+0x3332ff6c>
    200c:	00b50633          	add	a2,a0,a1
    2010:	54c0aa23          	sw	a2,1364(ra)

00002014 <inst_375>:
    2014:	33333537          	lui	a0,0x33333
    2018:	33450513          	addi	a0,a0,820 # 33333334 <_data_lma+0x3332ff6c>
    201c:	666665b7          	lui	a1,0x66666
    2020:	66758593          	addi	a1,a1,1639 # 66666667 <_data_lma+0x6666329f>
    2024:	00b50633          	add	a2,a0,a1
    2028:	54c0ac23          	sw	a2,1368(ra)

0000202c <inst_376>:
    202c:	33333537          	lui	a0,0x33333
    2030:	33450513          	addi	a0,a0,820 # 33333334 <_data_lma+0x3332ff6c>
    2034:	ffff55b7          	lui	a1,0xffff5
    2038:	afd58593          	addi	a1,a1,-1283 # ffff4afd <_data_strings+0x7ffefe35>
    203c:	00b50633          	add	a2,a0,a1
    2040:	54c0ae23          	sw	a2,1372(ra)

00002044 <inst_377>:
    2044:	33333537          	lui	a0,0x33333
    2048:	33450513          	addi	a0,a0,820 # 33333334 <_data_lma+0x3332ff6c>
    204c:	0000b5b7          	lui	a1,0xb
    2050:	50558593          	addi	a1,a1,1285 # b505 <_data_lma+0x813d>
    2054:	00b50633          	add	a2,a0,a1
    2058:	56c0a023          	sw	a2,1376(ra)

0000205c <inst_378>:
    205c:	66666537          	lui	a0,0x66666
    2060:	66750513          	addi	a0,a0,1639 # 66666667 <_data_lma+0x6666329f>
    2064:	00300593          	li	a1,3
    2068:	00b50633          	add	a2,a0,a1
    206c:	56c0a223          	sw	a2,1380(ra)

00002070 <inst_379>:
    2070:	66666537          	lui	a0,0x66666
    2074:	66750513          	addi	a0,a0,1639 # 66666667 <_data_lma+0x6666329f>
    2078:	555555b7          	lui	a1,0x55555
    207c:	55558593          	addi	a1,a1,1365 # 55555555 <_data_lma+0x5555218d>
    2080:	00b50633          	add	a2,a0,a1
    2084:	56c0a423          	sw	a2,1384(ra)

00002088 <inst_380>:
    2088:	66666537          	lui	a0,0x66666
    208c:	66750513          	addi	a0,a0,1639 # 66666667 <_data_lma+0x6666329f>
    2090:	aaaab5b7          	lui	a1,0xaaaab
    2094:	aaa58593          	addi	a1,a1,-1366 # aaaaaaaa <_data_strings+0x2aaa5de2>
    2098:	00b50633          	add	a2,a0,a1
    209c:	56c0a623          	sw	a2,1388(ra)

000020a0 <inst_381>:
    20a0:	66666537          	lui	a0,0x66666
    20a4:	66750513          	addi	a0,a0,1639 # 66666667 <_data_lma+0x6666329f>
    20a8:	00500593          	li	a1,5
    20ac:	00b50633          	add	a2,a0,a1
    20b0:	56c0a823          	sw	a2,1392(ra)

000020b4 <inst_382>:
    20b4:	66666537          	lui	a0,0x66666
    20b8:	66750513          	addi	a0,a0,1639 # 66666667 <_data_lma+0x6666329f>
    20bc:	333335b7          	lui	a1,0x33333
    20c0:	33358593          	addi	a1,a1,819 # 33333333 <_data_lma+0x3332ff6b>
    20c4:	00b50633          	add	a2,a0,a1
    20c8:	56c0aa23          	sw	a2,1396(ra)

000020cc <inst_383>:
    20cc:	66666537          	lui	a0,0x66666
    20d0:	66750513          	addi	a0,a0,1639 # 66666667 <_data_lma+0x6666329f>
    20d4:	666665b7          	lui	a1,0x66666
    20d8:	66658593          	addi	a1,a1,1638 # 66666666 <_data_lma+0x6666329e>
    20dc:	00b50633          	add	a2,a0,a1
    20e0:	56c0ac23          	sw	a2,1400(ra)

000020e4 <inst_384>:
    20e4:	66666537          	lui	a0,0x66666
    20e8:	66750513          	addi	a0,a0,1639 # 66666667 <_data_lma+0x6666329f>
    20ec:	ffff55b7          	lui	a1,0xffff5
    20f0:	afc58593          	addi	a1,a1,-1284 # ffff4afc <_data_strings+0x7ffefe34>
    20f4:	00b50633          	add	a2,a0,a1
    20f8:	56c0ae23          	sw	a2,1404(ra)

000020fc <inst_385>:
    20fc:	66666537          	lui	a0,0x66666
    2100:	66750513          	addi	a0,a0,1639 # 66666667 <_data_lma+0x6666329f>
    2104:	0000b5b7          	lui	a1,0xb
    2108:	50458593          	addi	a1,a1,1284 # b504 <_data_lma+0x813c>
    210c:	00b50633          	add	a2,a0,a1
    2110:	58c0a023          	sw	a2,1408(ra)

00002114 <inst_386>:
    2114:	66666537          	lui	a0,0x66666
    2118:	66750513          	addi	a0,a0,1639 # 66666667 <_data_lma+0x6666329f>
    211c:	00200593          	li	a1,2
    2120:	00b50633          	add	a2,a0,a1
    2124:	58c0a223          	sw	a2,1412(ra)

00002128 <inst_387>:
    2128:	66666537          	lui	a0,0x66666
    212c:	66750513          	addi	a0,a0,1639 # 66666667 <_data_lma+0x6666329f>
    2130:	555555b7          	lui	a1,0x55555
    2134:	55458593          	addi	a1,a1,1364 # 55555554 <_data_lma+0x5555218c>
    2138:	00b50633          	add	a2,a0,a1
    213c:	58c0a423          	sw	a2,1416(ra)

00002140 <inst_388>:
    2140:	66666537          	lui	a0,0x66666
    2144:	66750513          	addi	a0,a0,1639 # 66666667 <_data_lma+0x6666329f>
    2148:	00000593          	li	a1,0
    214c:	00b50633          	add	a2,a0,a1
    2150:	58c0a623          	sw	a2,1420(ra)

00002154 <inst_389>:
    2154:	66666537          	lui	a0,0x66666
    2158:	66750513          	addi	a0,a0,1639 # 66666667 <_data_lma+0x6666329f>
    215c:	00400593          	li	a1,4
    2160:	00b50633          	add	a2,a0,a1
    2164:	58c0a823          	sw	a2,1424(ra)

00002168 <inst_390>:
    2168:	66666537          	lui	a0,0x66666
    216c:	66750513          	addi	a0,a0,1639 # 66666667 <_data_lma+0x6666329f>
    2170:	333335b7          	lui	a1,0x33333
    2174:	33258593          	addi	a1,a1,818 # 33333332 <_data_lma+0x3332ff6a>
    2178:	00b50633          	add	a2,a0,a1
    217c:	58c0aa23          	sw	a2,1428(ra)

00002180 <inst_391>:
    2180:	66666537          	lui	a0,0x66666
    2184:	66750513          	addi	a0,a0,1639 # 66666667 <_data_lma+0x6666329f>
    2188:	666665b7          	lui	a1,0x66666
    218c:	66558593          	addi	a1,a1,1637 # 66666665 <_data_lma+0x6666329d>
    2190:	00b50633          	add	a2,a0,a1
    2194:	58c0ac23          	sw	a2,1432(ra)

00002198 <inst_392>:
    2198:	66666537          	lui	a0,0x66666
    219c:	66750513          	addi	a0,a0,1639 # 66666667 <_data_lma+0x6666329f>
    21a0:	0000b5b7          	lui	a1,0xb
    21a4:	50358593          	addi	a1,a1,1283 # b503 <_data_lma+0x813b>
    21a8:	00b50633          	add	a2,a0,a1
    21ac:	58c0ae23          	sw	a2,1436(ra)

000021b0 <inst_393>:
    21b0:	66666537          	lui	a0,0x66666
    21b4:	66750513          	addi	a0,a0,1639 # 66666667 <_data_lma+0x6666329f>
    21b8:	555555b7          	lui	a1,0x55555
    21bc:	55658593          	addi	a1,a1,1366 # 55555556 <_data_lma+0x5555218e>
    21c0:	00b50633          	add	a2,a0,a1
    21c4:	5ac0a023          	sw	a2,1440(ra)

000021c8 <inst_394>:
    21c8:	66666537          	lui	a0,0x66666
    21cc:	66750513          	addi	a0,a0,1639 # 66666667 <_data_lma+0x6666329f>
    21d0:	aaaab5b7          	lui	a1,0xaaaab
    21d4:	aab58593          	addi	a1,a1,-1365 # aaaaaaab <_data_strings+0x2aaa5de3>
    21d8:	00b50633          	add	a2,a0,a1
    21dc:	5ac0a223          	sw	a2,1444(ra)

000021e0 <inst_395>:
    21e0:	66666537          	lui	a0,0x66666
    21e4:	66750513          	addi	a0,a0,1639 # 66666667 <_data_lma+0x6666329f>
    21e8:	00600593          	li	a1,6
    21ec:	00b50633          	add	a2,a0,a1
    21f0:	5ac0a423          	sw	a2,1448(ra)

000021f4 <inst_396>:
    21f4:	66666537          	lui	a0,0x66666
    21f8:	66750513          	addi	a0,a0,1639 # 66666667 <_data_lma+0x6666329f>
    21fc:	333335b7          	lui	a1,0x33333
    2200:	33458593          	addi	a1,a1,820 # 33333334 <_data_lma+0x3332ff6c>
    2204:	00b50633          	add	a2,a0,a1
    2208:	5ac0a623          	sw	a2,1452(ra)

0000220c <inst_397>:
    220c:	66666537          	lui	a0,0x66666
    2210:	66750513          	addi	a0,a0,1639 # 66666667 <_data_lma+0x6666329f>
    2214:	666665b7          	lui	a1,0x66666
    2218:	66758593          	addi	a1,a1,1639 # 66666667 <_data_lma+0x6666329f>
    221c:	00b50633          	add	a2,a0,a1
    2220:	5ac0a823          	sw	a2,1456(ra)

00002224 <inst_398>:
    2224:	66666537          	lui	a0,0x66666
    2228:	66750513          	addi	a0,a0,1639 # 66666667 <_data_lma+0x6666329f>
    222c:	ffff55b7          	lui	a1,0xffff5
    2230:	afd58593          	addi	a1,a1,-1283 # ffff4afd <_data_strings+0x7ffefe35>
    2234:	00b50633          	add	a2,a0,a1
    2238:	5ac0aa23          	sw	a2,1460(ra)

0000223c <inst_399>:
    223c:	66666537          	lui	a0,0x66666
    2240:	66750513          	addi	a0,a0,1639 # 66666667 <_data_lma+0x6666329f>
    2244:	0000b5b7          	lui	a1,0xb
    2248:	50558593          	addi	a1,a1,1285 # b505 <_data_lma+0x813d>
    224c:	00b50633          	add	a2,a0,a1
    2250:	5ac0ac23          	sw	a2,1464(ra)

00002254 <inst_400>:
    2254:	ffff5537          	lui	a0,0xffff5
    2258:	afd50513          	addi	a0,a0,-1283 # ffff4afd <_data_strings+0x7ffefe35>
    225c:	00300593          	li	a1,3
    2260:	00b50633          	add	a2,a0,a1
    2264:	5ac0ae23          	sw	a2,1468(ra)

00002268 <inst_401>:
    2268:	ffff5537          	lui	a0,0xffff5
    226c:	afd50513          	addi	a0,a0,-1283 # ffff4afd <_data_strings+0x7ffefe35>
    2270:	555555b7          	lui	a1,0x55555
    2274:	55558593          	addi	a1,a1,1365 # 55555555 <_data_lma+0x5555218d>
    2278:	00b50633          	add	a2,a0,a1
    227c:	5cc0a023          	sw	a2,1472(ra)

00002280 <inst_402>:
    2280:	ffff5537          	lui	a0,0xffff5
    2284:	afd50513          	addi	a0,a0,-1283 # ffff4afd <_data_strings+0x7ffefe35>
    2288:	aaaab5b7          	lui	a1,0xaaaab
    228c:	aaa58593          	addi	a1,a1,-1366 # aaaaaaaa <_data_strings+0x2aaa5de2>
    2290:	00b50633          	add	a2,a0,a1
    2294:	5cc0a223          	sw	a2,1476(ra)

00002298 <inst_403>:
    2298:	ffff5537          	lui	a0,0xffff5
    229c:	afd50513          	addi	a0,a0,-1283 # ffff4afd <_data_strings+0x7ffefe35>
    22a0:	00500593          	li	a1,5
    22a4:	00b50633          	add	a2,a0,a1
    22a8:	5cc0a423          	sw	a2,1480(ra)

000022ac <inst_404>:
    22ac:	ffff5537          	lui	a0,0xffff5
    22b0:	afd50513          	addi	a0,a0,-1283 # ffff4afd <_data_strings+0x7ffefe35>
    22b4:	333335b7          	lui	a1,0x33333
    22b8:	33358593          	addi	a1,a1,819 # 33333333 <_data_lma+0x3332ff6b>
    22bc:	00b50633          	add	a2,a0,a1
    22c0:	5cc0a623          	sw	a2,1484(ra)

000022c4 <inst_405>:
    22c4:	ffff5537          	lui	a0,0xffff5
    22c8:	afd50513          	addi	a0,a0,-1283 # ffff4afd <_data_strings+0x7ffefe35>
    22cc:	666665b7          	lui	a1,0x66666
    22d0:	66658593          	addi	a1,a1,1638 # 66666666 <_data_lma+0x6666329e>
    22d4:	00b50633          	add	a2,a0,a1
    22d8:	5cc0a823          	sw	a2,1488(ra)

000022dc <inst_406>:
    22dc:	ffff5537          	lui	a0,0xffff5
    22e0:	afd50513          	addi	a0,a0,-1283 # ffff4afd <_data_strings+0x7ffefe35>
    22e4:	ffff55b7          	lui	a1,0xffff5
    22e8:	afc58593          	addi	a1,a1,-1284 # ffff4afc <_data_strings+0x7ffefe34>
    22ec:	00b50633          	add	a2,a0,a1
    22f0:	5cc0aa23          	sw	a2,1492(ra)

000022f4 <inst_407>:
    22f4:	ffff5537          	lui	a0,0xffff5
    22f8:	afd50513          	addi	a0,a0,-1283 # ffff4afd <_data_strings+0x7ffefe35>
    22fc:	0000b5b7          	lui	a1,0xb
    2300:	50458593          	addi	a1,a1,1284 # b504 <_data_lma+0x813c>
    2304:	00b50633          	add	a2,a0,a1
    2308:	5cc0ac23          	sw	a2,1496(ra)

0000230c <inst_408>:
    230c:	ffff5537          	lui	a0,0xffff5
    2310:	afd50513          	addi	a0,a0,-1283 # ffff4afd <_data_strings+0x7ffefe35>
    2314:	00200593          	li	a1,2
    2318:	00b50633          	add	a2,a0,a1
    231c:	5cc0ae23          	sw	a2,1500(ra)

00002320 <inst_409>:
    2320:	ffff5537          	lui	a0,0xffff5
    2324:	afd50513          	addi	a0,a0,-1283 # ffff4afd <_data_strings+0x7ffefe35>
    2328:	555555b7          	lui	a1,0x55555
    232c:	55458593          	addi	a1,a1,1364 # 55555554 <_data_lma+0x5555218c>
    2330:	00b50633          	add	a2,a0,a1
    2334:	5ec0a023          	sw	a2,1504(ra)

00002338 <inst_410>:
    2338:	ffff5537          	lui	a0,0xffff5
    233c:	afd50513          	addi	a0,a0,-1283 # ffff4afd <_data_strings+0x7ffefe35>
    2340:	00000593          	li	a1,0
    2344:	00b50633          	add	a2,a0,a1
    2348:	5ec0a223          	sw	a2,1508(ra)

0000234c <inst_411>:
    234c:	ffff5537          	lui	a0,0xffff5
    2350:	afd50513          	addi	a0,a0,-1283 # ffff4afd <_data_strings+0x7ffefe35>
    2354:	00400593          	li	a1,4
    2358:	00b50633          	add	a2,a0,a1
    235c:	5ec0a423          	sw	a2,1512(ra)

00002360 <inst_412>:
    2360:	ffff5537          	lui	a0,0xffff5
    2364:	afd50513          	addi	a0,a0,-1283 # ffff4afd <_data_strings+0x7ffefe35>
    2368:	333335b7          	lui	a1,0x33333
    236c:	33258593          	addi	a1,a1,818 # 33333332 <_data_lma+0x3332ff6a>
    2370:	00b50633          	add	a2,a0,a1
    2374:	5ec0a623          	sw	a2,1516(ra)

00002378 <inst_413>:
    2378:	ffff5537          	lui	a0,0xffff5
    237c:	afd50513          	addi	a0,a0,-1283 # ffff4afd <_data_strings+0x7ffefe35>
    2380:	666665b7          	lui	a1,0x66666
    2384:	66558593          	addi	a1,a1,1637 # 66666665 <_data_lma+0x6666329d>
    2388:	00b50633          	add	a2,a0,a1
    238c:	5ec0a823          	sw	a2,1520(ra)

00002390 <inst_414>:
    2390:	ffff5537          	lui	a0,0xffff5
    2394:	afd50513          	addi	a0,a0,-1283 # ffff4afd <_data_strings+0x7ffefe35>
    2398:	0000b5b7          	lui	a1,0xb
    239c:	50358593          	addi	a1,a1,1283 # b503 <_data_lma+0x813b>
    23a0:	00b50633          	add	a2,a0,a1
    23a4:	5ec0aa23          	sw	a2,1524(ra)

000023a8 <inst_415>:
    23a8:	ffff5537          	lui	a0,0xffff5
    23ac:	afd50513          	addi	a0,a0,-1283 # ffff4afd <_data_strings+0x7ffefe35>
    23b0:	555555b7          	lui	a1,0x55555
    23b4:	55658593          	addi	a1,a1,1366 # 55555556 <_data_lma+0x5555218e>
    23b8:	00b50633          	add	a2,a0,a1
    23bc:	5ec0ac23          	sw	a2,1528(ra)

000023c0 <inst_416>:
    23c0:	ffff5537          	lui	a0,0xffff5
    23c4:	afd50513          	addi	a0,a0,-1283 # ffff4afd <_data_strings+0x7ffefe35>
    23c8:	aaaab5b7          	lui	a1,0xaaaab
    23cc:	aab58593          	addi	a1,a1,-1365 # aaaaaaab <_data_strings+0x2aaa5de3>
    23d0:	00b50633          	add	a2,a0,a1
    23d4:	5ec0ae23          	sw	a2,1532(ra)

000023d8 <inst_417>:
    23d8:	ffff5537          	lui	a0,0xffff5
    23dc:	afd50513          	addi	a0,a0,-1283 # ffff4afd <_data_strings+0x7ffefe35>
    23e0:	00600593          	li	a1,6
    23e4:	00b50633          	add	a2,a0,a1
    23e8:	60c0a023          	sw	a2,1536(ra)

000023ec <inst_418>:
    23ec:	ffff5537          	lui	a0,0xffff5
    23f0:	afd50513          	addi	a0,a0,-1283 # ffff4afd <_data_strings+0x7ffefe35>
    23f4:	333335b7          	lui	a1,0x33333
    23f8:	33458593          	addi	a1,a1,820 # 33333334 <_data_lma+0x3332ff6c>
    23fc:	00b50633          	add	a2,a0,a1
    2400:	60c0a223          	sw	a2,1540(ra)

00002404 <inst_419>:
    2404:	ffff5537          	lui	a0,0xffff5
    2408:	afd50513          	addi	a0,a0,-1283 # ffff4afd <_data_strings+0x7ffefe35>
    240c:	666665b7          	lui	a1,0x66666
    2410:	66758593          	addi	a1,a1,1639 # 66666667 <_data_lma+0x6666329f>
    2414:	00b50633          	add	a2,a0,a1
    2418:	60c0a423          	sw	a2,1544(ra)

0000241c <inst_420>:
    241c:	ffff5537          	lui	a0,0xffff5
    2420:	afd50513          	addi	a0,a0,-1283 # ffff4afd <_data_strings+0x7ffefe35>
    2424:	ffff55b7          	lui	a1,0xffff5
    2428:	afd58593          	addi	a1,a1,-1283 # ffff4afd <_data_strings+0x7ffefe35>
    242c:	00b50633          	add	a2,a0,a1
    2430:	60c0a623          	sw	a2,1548(ra)

00002434 <inst_421>:
    2434:	ffff5537          	lui	a0,0xffff5
    2438:	afd50513          	addi	a0,a0,-1283 # ffff4afd <_data_strings+0x7ffefe35>
    243c:	0000b5b7          	lui	a1,0xb
    2440:	50558593          	addi	a1,a1,1285 # b505 <_data_lma+0x813d>
    2444:	00b50633          	add	a2,a0,a1
    2448:	60c0a823          	sw	a2,1552(ra)

0000244c <inst_422>:
    244c:	0000b537          	lui	a0,0xb
    2450:	50550513          	addi	a0,a0,1285 # b505 <_data_lma+0x813d>
    2454:	00300593          	li	a1,3
    2458:	00b50633          	add	a2,a0,a1
    245c:	60c0aa23          	sw	a2,1556(ra)

00002460 <inst_423>:
    2460:	0000b537          	lui	a0,0xb
    2464:	50550513          	addi	a0,a0,1285 # b505 <_data_lma+0x813d>
    2468:	555555b7          	lui	a1,0x55555
    246c:	55558593          	addi	a1,a1,1365 # 55555555 <_data_lma+0x5555218d>
    2470:	00b50633          	add	a2,a0,a1
    2474:	60c0ac23          	sw	a2,1560(ra)

00002478 <inst_424>:
    2478:	0000b537          	lui	a0,0xb
    247c:	50550513          	addi	a0,a0,1285 # b505 <_data_lma+0x813d>
    2480:	aaaab5b7          	lui	a1,0xaaaab
    2484:	aaa58593          	addi	a1,a1,-1366 # aaaaaaaa <_data_strings+0x2aaa5de2>
    2488:	00b50633          	add	a2,a0,a1
    248c:	60c0ae23          	sw	a2,1564(ra)

00002490 <inst_425>:
    2490:	0000b537          	lui	a0,0xb
    2494:	50550513          	addi	a0,a0,1285 # b505 <_data_lma+0x813d>
    2498:	00500593          	li	a1,5
    249c:	00b50633          	add	a2,a0,a1
    24a0:	62c0a023          	sw	a2,1568(ra)

000024a4 <inst_426>:
    24a4:	0000b537          	lui	a0,0xb
    24a8:	50550513          	addi	a0,a0,1285 # b505 <_data_lma+0x813d>
    24ac:	333335b7          	lui	a1,0x33333
    24b0:	33358593          	addi	a1,a1,819 # 33333333 <_data_lma+0x3332ff6b>
    24b4:	00b50633          	add	a2,a0,a1
    24b8:	62c0a223          	sw	a2,1572(ra)

000024bc <inst_427>:
    24bc:	0000b537          	lui	a0,0xb
    24c0:	50550513          	addi	a0,a0,1285 # b505 <_data_lma+0x813d>
    24c4:	666665b7          	lui	a1,0x66666
    24c8:	66658593          	addi	a1,a1,1638 # 66666666 <_data_lma+0x6666329e>
    24cc:	00b50633          	add	a2,a0,a1
    24d0:	62c0a423          	sw	a2,1576(ra)

000024d4 <inst_428>:
    24d4:	0000b537          	lui	a0,0xb
    24d8:	50550513          	addi	a0,a0,1285 # b505 <_data_lma+0x813d>
    24dc:	ffff55b7          	lui	a1,0xffff5
    24e0:	afc58593          	addi	a1,a1,-1284 # ffff4afc <_data_strings+0x7ffefe34>
    24e4:	00b50633          	add	a2,a0,a1
    24e8:	62c0a623          	sw	a2,1580(ra)

000024ec <inst_429>:
    24ec:	0000b537          	lui	a0,0xb
    24f0:	50550513          	addi	a0,a0,1285 # b505 <_data_lma+0x813d>
    24f4:	0000b5b7          	lui	a1,0xb
    24f8:	50458593          	addi	a1,a1,1284 # b504 <_data_lma+0x813c>
    24fc:	00b50633          	add	a2,a0,a1
    2500:	62c0a823          	sw	a2,1584(ra)

00002504 <inst_430>:
    2504:	0000b537          	lui	a0,0xb
    2508:	50550513          	addi	a0,a0,1285 # b505 <_data_lma+0x813d>
    250c:	00200593          	li	a1,2
    2510:	00b50633          	add	a2,a0,a1
    2514:	62c0aa23          	sw	a2,1588(ra)

00002518 <inst_431>:
    2518:	0000b537          	lui	a0,0xb
    251c:	50550513          	addi	a0,a0,1285 # b505 <_data_lma+0x813d>
    2520:	555555b7          	lui	a1,0x55555
    2524:	55458593          	addi	a1,a1,1364 # 55555554 <_data_lma+0x5555218c>
    2528:	00b50633          	add	a2,a0,a1
    252c:	62c0ac23          	sw	a2,1592(ra)

00002530 <inst_432>:
    2530:	0000b537          	lui	a0,0xb
    2534:	50550513          	addi	a0,a0,1285 # b505 <_data_lma+0x813d>
    2538:	00000593          	li	a1,0
    253c:	00b50633          	add	a2,a0,a1
    2540:	62c0ae23          	sw	a2,1596(ra)

00002544 <inst_433>:
    2544:	0000b537          	lui	a0,0xb
    2548:	50550513          	addi	a0,a0,1285 # b505 <_data_lma+0x813d>
    254c:	00400593          	li	a1,4
    2550:	00b50633          	add	a2,a0,a1
    2554:	64c0a023          	sw	a2,1600(ra)

00002558 <inst_434>:
    2558:	0000b537          	lui	a0,0xb
    255c:	50550513          	addi	a0,a0,1285 # b505 <_data_lma+0x813d>
    2560:	333335b7          	lui	a1,0x33333
    2564:	33258593          	addi	a1,a1,818 # 33333332 <_data_lma+0x3332ff6a>
    2568:	00b50633          	add	a2,a0,a1
    256c:	64c0a223          	sw	a2,1604(ra)

00002570 <inst_435>:
    2570:	0000b537          	lui	a0,0xb
    2574:	50550513          	addi	a0,a0,1285 # b505 <_data_lma+0x813d>
    2578:	666665b7          	lui	a1,0x66666
    257c:	66558593          	addi	a1,a1,1637 # 66666665 <_data_lma+0x6666329d>
    2580:	00b50633          	add	a2,a0,a1
    2584:	64c0a423          	sw	a2,1608(ra)

00002588 <inst_436>:
    2588:	0000b537          	lui	a0,0xb
    258c:	50550513          	addi	a0,a0,1285 # b505 <_data_lma+0x813d>
    2590:	0000b5b7          	lui	a1,0xb
    2594:	50358593          	addi	a1,a1,1283 # b503 <_data_lma+0x813b>
    2598:	00b50633          	add	a2,a0,a1
    259c:	64c0a623          	sw	a2,1612(ra)

000025a0 <inst_437>:
    25a0:	0000b537          	lui	a0,0xb
    25a4:	50550513          	addi	a0,a0,1285 # b505 <_data_lma+0x813d>
    25a8:	555555b7          	lui	a1,0x55555
    25ac:	55658593          	addi	a1,a1,1366 # 55555556 <_data_lma+0x5555218e>
    25b0:	00b50633          	add	a2,a0,a1
    25b4:	64c0a823          	sw	a2,1616(ra)

000025b8 <inst_438>:
    25b8:	0000b537          	lui	a0,0xb
    25bc:	50550513          	addi	a0,a0,1285 # b505 <_data_lma+0x813d>
    25c0:	aaaab5b7          	lui	a1,0xaaaab
    25c4:	aab58593          	addi	a1,a1,-1365 # aaaaaaab <_data_strings+0x2aaa5de3>
    25c8:	00b50633          	add	a2,a0,a1
    25cc:	64c0aa23          	sw	a2,1620(ra)

000025d0 <inst_439>:
    25d0:	0000b537          	lui	a0,0xb
    25d4:	50550513          	addi	a0,a0,1285 # b505 <_data_lma+0x813d>
    25d8:	00600593          	li	a1,6
    25dc:	00b50633          	add	a2,a0,a1
    25e0:	64c0ac23          	sw	a2,1624(ra)

000025e4 <inst_440>:
    25e4:	0000b537          	lui	a0,0xb
    25e8:	50550513          	addi	a0,a0,1285 # b505 <_data_lma+0x813d>
    25ec:	333335b7          	lui	a1,0x33333
    25f0:	33458593          	addi	a1,a1,820 # 33333334 <_data_lma+0x3332ff6c>
    25f4:	00b50633          	add	a2,a0,a1
    25f8:	64c0ae23          	sw	a2,1628(ra)

000025fc <inst_441>:
    25fc:	0000b537          	lui	a0,0xb
    2600:	50550513          	addi	a0,a0,1285 # b505 <_data_lma+0x813d>
    2604:	666665b7          	lui	a1,0x66666
    2608:	66758593          	addi	a1,a1,1639 # 66666667 <_data_lma+0x6666329f>
    260c:	00b50633          	add	a2,a0,a1
    2610:	66c0a023          	sw	a2,1632(ra)

00002614 <inst_442>:
    2614:	0000b537          	lui	a0,0xb
    2618:	50550513          	addi	a0,a0,1285 # b505 <_data_lma+0x813d>
    261c:	ffff55b7          	lui	a1,0xffff5
    2620:	afd58593          	addi	a1,a1,-1283 # ffff4afd <_data_strings+0x7ffefe35>
    2624:	00b50633          	add	a2,a0,a1
    2628:	66c0a223          	sw	a2,1636(ra)

0000262c <inst_443>:
    262c:	0000b537          	lui	a0,0xb
    2630:	50550513          	addi	a0,a0,1285 # b505 <_data_lma+0x813d>
    2634:	0000b5b7          	lui	a1,0xb
    2638:	50558593          	addi	a1,a1,1285 # b505 <_data_lma+0x813d>
    263c:	00b50633          	add	a2,a0,a1
    2640:	66c0a423          	sw	a2,1640(ra)

00002644 <inst_444>:
    2644:	00000513          	li	a0,0
    2648:	00200593          	li	a1,2
    264c:	00b50633          	add	a2,a0,a1
    2650:	66c0a623          	sw	a2,1644(ra)

00002654 <inst_445>:
    2654:	00000513          	li	a0,0
    2658:	555555b7          	lui	a1,0x55555
    265c:	55458593          	addi	a1,a1,1364 # 55555554 <_data_lma+0x5555218c>
    2660:	00b50633          	add	a2,a0,a1
    2664:	66c0a823          	sw	a2,1648(ra)

00002668 <inst_446>:
    2668:	00000513          	li	a0,0
    266c:	00000593          	li	a1,0
    2670:	00b50633          	add	a2,a0,a1
    2674:	66c0aa23          	sw	a2,1652(ra)

00002678 <inst_447>:
    2678:	00000513          	li	a0,0
    267c:	00400593          	li	a1,4
    2680:	00b50633          	add	a2,a0,a1
    2684:	66c0ac23          	sw	a2,1656(ra)

00002688 <inst_448>:
    2688:	00000513          	li	a0,0
    268c:	333335b7          	lui	a1,0x33333
    2690:	33258593          	addi	a1,a1,818 # 33333332 <_data_lma+0x3332ff6a>
    2694:	00b50633          	add	a2,a0,a1
    2698:	66c0ae23          	sw	a2,1660(ra)

0000269c <inst_449>:
    269c:	00000513          	li	a0,0
    26a0:	666665b7          	lui	a1,0x66666
    26a4:	66558593          	addi	a1,a1,1637 # 66666665 <_data_lma+0x6666329d>
    26a8:	00b50633          	add	a2,a0,a1
    26ac:	68c0a023          	sw	a2,1664(ra)

000026b0 <inst_450>:
    26b0:	00000513          	li	a0,0
    26b4:	0000b5b7          	lui	a1,0xb
    26b8:	50358593          	addi	a1,a1,1283 # b503 <_data_lma+0x813b>
    26bc:	00b50633          	add	a2,a0,a1
    26c0:	68c0a223          	sw	a2,1668(ra)

000026c4 <inst_451>:
    26c4:	00000513          	li	a0,0
    26c8:	555555b7          	lui	a1,0x55555
    26cc:	55658593          	addi	a1,a1,1366 # 55555556 <_data_lma+0x5555218e>
    26d0:	00b50633          	add	a2,a0,a1
    26d4:	68c0a423          	sw	a2,1672(ra)

000026d8 <inst_452>:
    26d8:	00000513          	li	a0,0
    26dc:	aaaab5b7          	lui	a1,0xaaaab
    26e0:	aab58593          	addi	a1,a1,-1365 # aaaaaaab <_data_strings+0x2aaa5de3>
    26e4:	00b50633          	add	a2,a0,a1
    26e8:	68c0a623          	sw	a2,1676(ra)

000026ec <inst_453>:
    26ec:	00000513          	li	a0,0
    26f0:	00600593          	li	a1,6
    26f4:	00b50633          	add	a2,a0,a1
    26f8:	68c0a823          	sw	a2,1680(ra)

000026fc <inst_454>:
    26fc:	00000513          	li	a0,0
    2700:	333335b7          	lui	a1,0x33333
    2704:	33458593          	addi	a1,a1,820 # 33333334 <_data_lma+0x3332ff6c>
    2708:	00b50633          	add	a2,a0,a1
    270c:	68c0aa23          	sw	a2,1684(ra)

00002710 <inst_455>:
    2710:	00000513          	li	a0,0
    2714:	666665b7          	lui	a1,0x66666
    2718:	66758593          	addi	a1,a1,1639 # 66666667 <_data_lma+0x6666329f>
    271c:	00b50633          	add	a2,a0,a1
    2720:	68c0ac23          	sw	a2,1688(ra)

00002724 <inst_456>:
    2724:	00000513          	li	a0,0
    2728:	ffff55b7          	lui	a1,0xffff5
    272c:	afd58593          	addi	a1,a1,-1283 # ffff4afd <_data_strings+0x7ffefe35>
    2730:	00b50633          	add	a2,a0,a1
    2734:	68c0ae23          	sw	a2,1692(ra)

00002738 <inst_457>:
    2738:	00000513          	li	a0,0
    273c:	0000b5b7          	lui	a1,0xb
    2740:	50558593          	addi	a1,a1,1285 # b505 <_data_lma+0x813d>
    2744:	00b50633          	add	a2,a0,a1
    2748:	6ac0a023          	sw	a2,1696(ra)

0000274c <inst_458>:
    274c:	00400513          	li	a0,4
    2750:	00300593          	li	a1,3
    2754:	00b50633          	add	a2,a0,a1
    2758:	6ac0a223          	sw	a2,1700(ra)

0000275c <inst_459>:
    275c:	00400513          	li	a0,4
    2760:	555555b7          	lui	a1,0x55555
    2764:	55558593          	addi	a1,a1,1365 # 55555555 <_data_lma+0x5555218d>
    2768:	00b50633          	add	a2,a0,a1
    276c:	6ac0a423          	sw	a2,1704(ra)

00002770 <inst_460>:
    2770:	00400513          	li	a0,4
    2774:	aaaab5b7          	lui	a1,0xaaaab
    2778:	aaa58593          	addi	a1,a1,-1366 # aaaaaaaa <_data_strings+0x2aaa5de2>
    277c:	00b50633          	add	a2,a0,a1
    2780:	6ac0a623          	sw	a2,1708(ra)

00002784 <inst_461>:
    2784:	00400513          	li	a0,4
    2788:	00500593          	li	a1,5
    278c:	00b50633          	add	a2,a0,a1
    2790:	6ac0a823          	sw	a2,1712(ra)

00002794 <inst_462>:
    2794:	00400513          	li	a0,4
    2798:	333335b7          	lui	a1,0x33333
    279c:	33358593          	addi	a1,a1,819 # 33333333 <_data_lma+0x3332ff6b>
    27a0:	00b50633          	add	a2,a0,a1
    27a4:	6ac0aa23          	sw	a2,1716(ra)

000027a8 <inst_463>:
    27a8:	00400513          	li	a0,4
    27ac:	666665b7          	lui	a1,0x66666
    27b0:	66658593          	addi	a1,a1,1638 # 66666666 <_data_lma+0x6666329e>
    27b4:	00b50633          	add	a2,a0,a1
    27b8:	6ac0ac23          	sw	a2,1720(ra)

000027bc <inst_464>:
    27bc:	00400513          	li	a0,4
    27c0:	ffff55b7          	lui	a1,0xffff5
    27c4:	afc58593          	addi	a1,a1,-1284 # ffff4afc <_data_strings+0x7ffefe34>
    27c8:	00b50633          	add	a2,a0,a1
    27cc:	6ac0ae23          	sw	a2,1724(ra)

000027d0 <inst_465>:
    27d0:	00400513          	li	a0,4
    27d4:	0000b5b7          	lui	a1,0xb
    27d8:	50458593          	addi	a1,a1,1284 # b504 <_data_lma+0x813c>
    27dc:	00b50633          	add	a2,a0,a1
    27e0:	6cc0a023          	sw	a2,1728(ra)

000027e4 <inst_466>:
    27e4:	00400513          	li	a0,4
    27e8:	00200593          	li	a1,2
    27ec:	00b50633          	add	a2,a0,a1
    27f0:	6cc0a223          	sw	a2,1732(ra)

000027f4 <inst_467>:
    27f4:	00400513          	li	a0,4
    27f8:	555555b7          	lui	a1,0x55555
    27fc:	55458593          	addi	a1,a1,1364 # 55555554 <_data_lma+0x5555218c>
    2800:	00b50633          	add	a2,a0,a1
    2804:	6cc0a423          	sw	a2,1736(ra)

00002808 <inst_468>:
    2808:	00400513          	li	a0,4
    280c:	00000593          	li	a1,0
    2810:	00b50633          	add	a2,a0,a1
    2814:	6cc0a623          	sw	a2,1740(ra)

00002818 <inst_469>:
    2818:	00400513          	li	a0,4
    281c:	00400593          	li	a1,4
    2820:	00b50633          	add	a2,a0,a1
    2824:	6cc0a823          	sw	a2,1744(ra)

00002828 <inst_470>:
    2828:	00400513          	li	a0,4
    282c:	333335b7          	lui	a1,0x33333
    2830:	33258593          	addi	a1,a1,818 # 33333332 <_data_lma+0x3332ff6a>
    2834:	00b50633          	add	a2,a0,a1
    2838:	6cc0aa23          	sw	a2,1748(ra)

0000283c <inst_471>:
    283c:	00400513          	li	a0,4
    2840:	666665b7          	lui	a1,0x66666
    2844:	66558593          	addi	a1,a1,1637 # 66666665 <_data_lma+0x6666329d>
    2848:	00b50633          	add	a2,a0,a1
    284c:	6cc0ac23          	sw	a2,1752(ra)

00002850 <inst_472>:
    2850:	00400513          	li	a0,4
    2854:	0000b5b7          	lui	a1,0xb
    2858:	50358593          	addi	a1,a1,1283 # b503 <_data_lma+0x813b>
    285c:	00b50633          	add	a2,a0,a1
    2860:	6cc0ae23          	sw	a2,1756(ra)

00002864 <inst_473>:
    2864:	00400513          	li	a0,4
    2868:	555555b7          	lui	a1,0x55555
    286c:	55658593          	addi	a1,a1,1366 # 55555556 <_data_lma+0x5555218e>
    2870:	00b50633          	add	a2,a0,a1
    2874:	6ec0a023          	sw	a2,1760(ra)

00002878 <inst_474>:
    2878:	00400513          	li	a0,4
    287c:	aaaab5b7          	lui	a1,0xaaaab
    2880:	aab58593          	addi	a1,a1,-1365 # aaaaaaab <_data_strings+0x2aaa5de3>
    2884:	00b50633          	add	a2,a0,a1
    2888:	6ec0a223          	sw	a2,1764(ra)

0000288c <inst_475>:
    288c:	00400513          	li	a0,4
    2890:	00600593          	li	a1,6
    2894:	00b50633          	add	a2,a0,a1
    2898:	6ec0a423          	sw	a2,1768(ra)

0000289c <inst_476>:
    289c:	00400513          	li	a0,4
    28a0:	333335b7          	lui	a1,0x33333
    28a4:	33458593          	addi	a1,a1,820 # 33333334 <_data_lma+0x3332ff6c>
    28a8:	00b50633          	add	a2,a0,a1
    28ac:	6ec0a623          	sw	a2,1772(ra)

000028b0 <inst_477>:
    28b0:	00400513          	li	a0,4
    28b4:	666665b7          	lui	a1,0x66666
    28b8:	66758593          	addi	a1,a1,1639 # 66666667 <_data_lma+0x6666329f>
    28bc:	00b50633          	add	a2,a0,a1
    28c0:	6ec0a823          	sw	a2,1776(ra)

000028c4 <inst_478>:
    28c4:	00400513          	li	a0,4
    28c8:	ffff55b7          	lui	a1,0xffff5
    28cc:	afd58593          	addi	a1,a1,-1283 # ffff4afd <_data_strings+0x7ffefe35>
    28d0:	00b50633          	add	a2,a0,a1
    28d4:	6ec0aa23          	sw	a2,1780(ra)

000028d8 <inst_479>:
    28d8:	00400513          	li	a0,4
    28dc:	0000b5b7          	lui	a1,0xb
    28e0:	50558593          	addi	a1,a1,1285 # b505 <_data_lma+0x813d>
    28e4:	00b50633          	add	a2,a0,a1
    28e8:	6ec0ac23          	sw	a2,1784(ra)

000028ec <inst_480>:
    28ec:	33333537          	lui	a0,0x33333
    28f0:	33250513          	addi	a0,a0,818 # 33333332 <_data_lma+0x3332ff6a>
    28f4:	00300593          	li	a1,3
    28f8:	00b50633          	add	a2,a0,a1
    28fc:	6ec0ae23          	sw	a2,1788(ra)

00002900 <inst_481>:
    2900:	33333537          	lui	a0,0x33333
    2904:	33250513          	addi	a0,a0,818 # 33333332 <_data_lma+0x3332ff6a>
    2908:	555555b7          	lui	a1,0x55555
    290c:	55558593          	addi	a1,a1,1365 # 55555555 <_data_lma+0x5555218d>
    2910:	00b50633          	add	a2,a0,a1
    2914:	70c0a023          	sw	a2,1792(ra)

00002918 <inst_482>:
    2918:	33333537          	lui	a0,0x33333
    291c:	33250513          	addi	a0,a0,818 # 33333332 <_data_lma+0x3332ff6a>
    2920:	aaaab5b7          	lui	a1,0xaaaab
    2924:	aaa58593          	addi	a1,a1,-1366 # aaaaaaaa <_data_strings+0x2aaa5de2>
    2928:	00b50633          	add	a2,a0,a1
    292c:	70c0a223          	sw	a2,1796(ra)

00002930 <inst_483>:
    2930:	33333537          	lui	a0,0x33333
    2934:	33250513          	addi	a0,a0,818 # 33333332 <_data_lma+0x3332ff6a>
    2938:	00500593          	li	a1,5
    293c:	00b50633          	add	a2,a0,a1
    2940:	70c0a423          	sw	a2,1800(ra)

00002944 <inst_484>:
    2944:	33333537          	lui	a0,0x33333
    2948:	33250513          	addi	a0,a0,818 # 33333332 <_data_lma+0x3332ff6a>
    294c:	333335b7          	lui	a1,0x33333
    2950:	33358593          	addi	a1,a1,819 # 33333333 <_data_lma+0x3332ff6b>
    2954:	00b50633          	add	a2,a0,a1
    2958:	70c0a623          	sw	a2,1804(ra)

0000295c <inst_485>:
    295c:	33333537          	lui	a0,0x33333
    2960:	33250513          	addi	a0,a0,818 # 33333332 <_data_lma+0x3332ff6a>
    2964:	666665b7          	lui	a1,0x66666
    2968:	66658593          	addi	a1,a1,1638 # 66666666 <_data_lma+0x6666329e>
    296c:	00b50633          	add	a2,a0,a1
    2970:	70c0a823          	sw	a2,1808(ra)

00002974 <inst_486>:
    2974:	33333537          	lui	a0,0x33333
    2978:	33250513          	addi	a0,a0,818 # 33333332 <_data_lma+0x3332ff6a>
    297c:	ffff55b7          	lui	a1,0xffff5
    2980:	afc58593          	addi	a1,a1,-1284 # ffff4afc <_data_strings+0x7ffefe34>
    2984:	00b50633          	add	a2,a0,a1
    2988:	70c0aa23          	sw	a2,1812(ra)

0000298c <inst_487>:
    298c:	33333537          	lui	a0,0x33333
    2990:	33250513          	addi	a0,a0,818 # 33333332 <_data_lma+0x3332ff6a>
    2994:	0000b5b7          	lui	a1,0xb
    2998:	50458593          	addi	a1,a1,1284 # b504 <_data_lma+0x813c>
    299c:	00b50633          	add	a2,a0,a1
    29a0:	70c0ac23          	sw	a2,1816(ra)

000029a4 <inst_488>:
    29a4:	33333537          	lui	a0,0x33333
    29a8:	33250513          	addi	a0,a0,818 # 33333332 <_data_lma+0x3332ff6a>
    29ac:	00200593          	li	a1,2
    29b0:	00b50633          	add	a2,a0,a1
    29b4:	70c0ae23          	sw	a2,1820(ra)

000029b8 <inst_489>:
    29b8:	33333537          	lui	a0,0x33333
    29bc:	33250513          	addi	a0,a0,818 # 33333332 <_data_lma+0x3332ff6a>
    29c0:	555555b7          	lui	a1,0x55555
    29c4:	55458593          	addi	a1,a1,1364 # 55555554 <_data_lma+0x5555218c>
    29c8:	00b50633          	add	a2,a0,a1
    29cc:	72c0a023          	sw	a2,1824(ra)

000029d0 <inst_490>:
    29d0:	33333537          	lui	a0,0x33333
    29d4:	33250513          	addi	a0,a0,818 # 33333332 <_data_lma+0x3332ff6a>
    29d8:	00000593          	li	a1,0
    29dc:	00b50633          	add	a2,a0,a1
    29e0:	72c0a223          	sw	a2,1828(ra)

000029e4 <inst_491>:
    29e4:	33333537          	lui	a0,0x33333
    29e8:	33250513          	addi	a0,a0,818 # 33333332 <_data_lma+0x3332ff6a>
    29ec:	00400593          	li	a1,4
    29f0:	00b50633          	add	a2,a0,a1
    29f4:	72c0a423          	sw	a2,1832(ra)

000029f8 <inst_492>:
    29f8:	33333537          	lui	a0,0x33333
    29fc:	33250513          	addi	a0,a0,818 # 33333332 <_data_lma+0x3332ff6a>
    2a00:	333335b7          	lui	a1,0x33333
    2a04:	33258593          	addi	a1,a1,818 # 33333332 <_data_lma+0x3332ff6a>
    2a08:	00b50633          	add	a2,a0,a1
    2a0c:	72c0a623          	sw	a2,1836(ra)

00002a10 <inst_493>:
    2a10:	33333537          	lui	a0,0x33333
    2a14:	33250513          	addi	a0,a0,818 # 33333332 <_data_lma+0x3332ff6a>
    2a18:	666665b7          	lui	a1,0x66666
    2a1c:	66558593          	addi	a1,a1,1637 # 66666665 <_data_lma+0x6666329d>
    2a20:	00b50633          	add	a2,a0,a1
    2a24:	72c0a823          	sw	a2,1840(ra)

00002a28 <inst_494>:
    2a28:	33333537          	lui	a0,0x33333
    2a2c:	33250513          	addi	a0,a0,818 # 33333332 <_data_lma+0x3332ff6a>
    2a30:	0000b5b7          	lui	a1,0xb
    2a34:	50358593          	addi	a1,a1,1283 # b503 <_data_lma+0x813b>
    2a38:	00b50633          	add	a2,a0,a1
    2a3c:	72c0aa23          	sw	a2,1844(ra)

00002a40 <inst_495>:
    2a40:	33333537          	lui	a0,0x33333
    2a44:	33250513          	addi	a0,a0,818 # 33333332 <_data_lma+0x3332ff6a>
    2a48:	555555b7          	lui	a1,0x55555
    2a4c:	55658593          	addi	a1,a1,1366 # 55555556 <_data_lma+0x5555218e>
    2a50:	00b50633          	add	a2,a0,a1
    2a54:	72c0ac23          	sw	a2,1848(ra)

00002a58 <inst_496>:
    2a58:	33333537          	lui	a0,0x33333
    2a5c:	33250513          	addi	a0,a0,818 # 33333332 <_data_lma+0x3332ff6a>
    2a60:	aaaab5b7          	lui	a1,0xaaaab
    2a64:	aab58593          	addi	a1,a1,-1365 # aaaaaaab <_data_strings+0x2aaa5de3>
    2a68:	00b50633          	add	a2,a0,a1
    2a6c:	72c0ae23          	sw	a2,1852(ra)

00002a70 <inst_497>:
    2a70:	33333537          	lui	a0,0x33333
    2a74:	33250513          	addi	a0,a0,818 # 33333332 <_data_lma+0x3332ff6a>
    2a78:	00600593          	li	a1,6
    2a7c:	00b50633          	add	a2,a0,a1
    2a80:	74c0a023          	sw	a2,1856(ra)

00002a84 <inst_498>:
    2a84:	33333537          	lui	a0,0x33333
    2a88:	33250513          	addi	a0,a0,818 # 33333332 <_data_lma+0x3332ff6a>
    2a8c:	333335b7          	lui	a1,0x33333
    2a90:	33458593          	addi	a1,a1,820 # 33333334 <_data_lma+0x3332ff6c>
    2a94:	00b50633          	add	a2,a0,a1
    2a98:	74c0a223          	sw	a2,1860(ra)

00002a9c <inst_499>:
    2a9c:	33333537          	lui	a0,0x33333
    2aa0:	33250513          	addi	a0,a0,818 # 33333332 <_data_lma+0x3332ff6a>
    2aa4:	666665b7          	lui	a1,0x66666
    2aa8:	66758593          	addi	a1,a1,1639 # 66666667 <_data_lma+0x6666329f>
    2aac:	00b50633          	add	a2,a0,a1
    2ab0:	74c0a423          	sw	a2,1864(ra)

00002ab4 <inst_500>:
    2ab4:	33333537          	lui	a0,0x33333
    2ab8:	33250513          	addi	a0,a0,818 # 33333332 <_data_lma+0x3332ff6a>
    2abc:	ffff55b7          	lui	a1,0xffff5
    2ac0:	afd58593          	addi	a1,a1,-1283 # ffff4afd <_data_strings+0x7ffefe35>
    2ac4:	00b50633          	add	a2,a0,a1
    2ac8:	74c0a623          	sw	a2,1868(ra)

00002acc <inst_501>:
    2acc:	33333537          	lui	a0,0x33333
    2ad0:	33250513          	addi	a0,a0,818 # 33333332 <_data_lma+0x3332ff6a>
    2ad4:	0000b5b7          	lui	a1,0xb
    2ad8:	50558593          	addi	a1,a1,1285 # b505 <_data_lma+0x813d>
    2adc:	00b50633          	add	a2,a0,a1
    2ae0:	74c0a823          	sw	a2,1872(ra)

00002ae4 <inst_502>:
    2ae4:	66666537          	lui	a0,0x66666
    2ae8:	66550513          	addi	a0,a0,1637 # 66666665 <_data_lma+0x6666329d>
    2aec:	00300593          	li	a1,3
    2af0:	00b50633          	add	a2,a0,a1
    2af4:	74c0aa23          	sw	a2,1876(ra)

00002af8 <inst_503>:
    2af8:	66666537          	lui	a0,0x66666
    2afc:	66550513          	addi	a0,a0,1637 # 66666665 <_data_lma+0x6666329d>
    2b00:	555555b7          	lui	a1,0x55555
    2b04:	55558593          	addi	a1,a1,1365 # 55555555 <_data_lma+0x5555218d>
    2b08:	00b50633          	add	a2,a0,a1
    2b0c:	74c0ac23          	sw	a2,1880(ra)

00002b10 <inst_504>:
    2b10:	66666537          	lui	a0,0x66666
    2b14:	66550513          	addi	a0,a0,1637 # 66666665 <_data_lma+0x6666329d>
    2b18:	aaaab5b7          	lui	a1,0xaaaab
    2b1c:	aaa58593          	addi	a1,a1,-1366 # aaaaaaaa <_data_strings+0x2aaa5de2>
    2b20:	00b50633          	add	a2,a0,a1
    2b24:	74c0ae23          	sw	a2,1884(ra)

00002b28 <inst_505>:
    2b28:	66666537          	lui	a0,0x66666
    2b2c:	66550513          	addi	a0,a0,1637 # 66666665 <_data_lma+0x6666329d>
    2b30:	00500593          	li	a1,5
    2b34:	00b50633          	add	a2,a0,a1
    2b38:	76c0a023          	sw	a2,1888(ra)

00002b3c <inst_506>:
    2b3c:	66666537          	lui	a0,0x66666
    2b40:	66550513          	addi	a0,a0,1637 # 66666665 <_data_lma+0x6666329d>
    2b44:	333335b7          	lui	a1,0x33333
    2b48:	33358593          	addi	a1,a1,819 # 33333333 <_data_lma+0x3332ff6b>
    2b4c:	00b50633          	add	a2,a0,a1
    2b50:	76c0a223          	sw	a2,1892(ra)

00002b54 <inst_507>:
    2b54:	66666537          	lui	a0,0x66666
    2b58:	66550513          	addi	a0,a0,1637 # 66666665 <_data_lma+0x6666329d>
    2b5c:	666665b7          	lui	a1,0x66666
    2b60:	66658593          	addi	a1,a1,1638 # 66666666 <_data_lma+0x6666329e>
    2b64:	00b50633          	add	a2,a0,a1
    2b68:	76c0a423          	sw	a2,1896(ra)

00002b6c <inst_508>:
    2b6c:	66666537          	lui	a0,0x66666
    2b70:	66550513          	addi	a0,a0,1637 # 66666665 <_data_lma+0x6666329d>
    2b74:	ffff55b7          	lui	a1,0xffff5
    2b78:	afc58593          	addi	a1,a1,-1284 # ffff4afc <_data_strings+0x7ffefe34>
    2b7c:	00b50633          	add	a2,a0,a1
    2b80:	76c0a623          	sw	a2,1900(ra)

00002b84 <inst_509>:
    2b84:	66666537          	lui	a0,0x66666
    2b88:	66550513          	addi	a0,a0,1637 # 66666665 <_data_lma+0x6666329d>
    2b8c:	0000b5b7          	lui	a1,0xb
    2b90:	50458593          	addi	a1,a1,1284 # b504 <_data_lma+0x813c>
    2b94:	00b50633          	add	a2,a0,a1
    2b98:	76c0a823          	sw	a2,1904(ra)

00002b9c <inst_510>:
    2b9c:	66666537          	lui	a0,0x66666
    2ba0:	66550513          	addi	a0,a0,1637 # 66666665 <_data_lma+0x6666329d>
    2ba4:	00200593          	li	a1,2
    2ba8:	00b50633          	add	a2,a0,a1
    2bac:	76c0aa23          	sw	a2,1908(ra)

00002bb0 <inst_511>:
    2bb0:	66666537          	lui	a0,0x66666
    2bb4:	66550513          	addi	a0,a0,1637 # 66666665 <_data_lma+0x6666329d>
    2bb8:	555555b7          	lui	a1,0x55555
    2bbc:	55458593          	addi	a1,a1,1364 # 55555554 <_data_lma+0x5555218c>
    2bc0:	00b50633          	add	a2,a0,a1
    2bc4:	76c0ac23          	sw	a2,1912(ra)

00002bc8 <inst_512>:
    2bc8:	66666537          	lui	a0,0x66666
    2bcc:	66550513          	addi	a0,a0,1637 # 66666665 <_data_lma+0x6666329d>
    2bd0:	00000593          	li	a1,0
    2bd4:	00b50633          	add	a2,a0,a1
    2bd8:	76c0ae23          	sw	a2,1916(ra)

00002bdc <inst_513>:
    2bdc:	66666537          	lui	a0,0x66666
    2be0:	66550513          	addi	a0,a0,1637 # 66666665 <_data_lma+0x6666329d>
    2be4:	00400593          	li	a1,4
    2be8:	00b50633          	add	a2,a0,a1
    2bec:	78c0a023          	sw	a2,1920(ra)

00002bf0 <inst_514>:
    2bf0:	66666537          	lui	a0,0x66666
    2bf4:	66550513          	addi	a0,a0,1637 # 66666665 <_data_lma+0x6666329d>
    2bf8:	333335b7          	lui	a1,0x33333
    2bfc:	33258593          	addi	a1,a1,818 # 33333332 <_data_lma+0x3332ff6a>
    2c00:	00b50633          	add	a2,a0,a1
    2c04:	78c0a223          	sw	a2,1924(ra)

00002c08 <inst_515>:
    2c08:	66666537          	lui	a0,0x66666
    2c0c:	66550513          	addi	a0,a0,1637 # 66666665 <_data_lma+0x6666329d>
    2c10:	666665b7          	lui	a1,0x66666
    2c14:	66558593          	addi	a1,a1,1637 # 66666665 <_data_lma+0x6666329d>
    2c18:	00b50633          	add	a2,a0,a1
    2c1c:	78c0a423          	sw	a2,1928(ra)

00002c20 <inst_516>:
    2c20:	66666537          	lui	a0,0x66666
    2c24:	66550513          	addi	a0,a0,1637 # 66666665 <_data_lma+0x6666329d>
    2c28:	0000b5b7          	lui	a1,0xb
    2c2c:	50358593          	addi	a1,a1,1283 # b503 <_data_lma+0x813b>
    2c30:	00b50633          	add	a2,a0,a1
    2c34:	78c0a623          	sw	a2,1932(ra)

00002c38 <inst_517>:
    2c38:	66666537          	lui	a0,0x66666
    2c3c:	66550513          	addi	a0,a0,1637 # 66666665 <_data_lma+0x6666329d>
    2c40:	555555b7          	lui	a1,0x55555
    2c44:	55658593          	addi	a1,a1,1366 # 55555556 <_data_lma+0x5555218e>
    2c48:	00b50633          	add	a2,a0,a1
    2c4c:	78c0a823          	sw	a2,1936(ra)

00002c50 <inst_518>:
    2c50:	66666537          	lui	a0,0x66666
    2c54:	66550513          	addi	a0,a0,1637 # 66666665 <_data_lma+0x6666329d>
    2c58:	aaaab5b7          	lui	a1,0xaaaab
    2c5c:	aab58593          	addi	a1,a1,-1365 # aaaaaaab <_data_strings+0x2aaa5de3>
    2c60:	00b50633          	add	a2,a0,a1
    2c64:	78c0aa23          	sw	a2,1940(ra)

00002c68 <inst_519>:
    2c68:	66666537          	lui	a0,0x66666
    2c6c:	66550513          	addi	a0,a0,1637 # 66666665 <_data_lma+0x6666329d>
    2c70:	00600593          	li	a1,6
    2c74:	00b50633          	add	a2,a0,a1
    2c78:	78c0ac23          	sw	a2,1944(ra)

00002c7c <inst_520>:
    2c7c:	66666537          	lui	a0,0x66666
    2c80:	66550513          	addi	a0,a0,1637 # 66666665 <_data_lma+0x6666329d>
    2c84:	333335b7          	lui	a1,0x33333
    2c88:	33458593          	addi	a1,a1,820 # 33333334 <_data_lma+0x3332ff6c>
    2c8c:	00b50633          	add	a2,a0,a1
    2c90:	78c0ae23          	sw	a2,1948(ra)

00002c94 <inst_521>:
    2c94:	66666537          	lui	a0,0x66666
    2c98:	66550513          	addi	a0,a0,1637 # 66666665 <_data_lma+0x6666329d>
    2c9c:	666665b7          	lui	a1,0x66666
    2ca0:	66758593          	addi	a1,a1,1639 # 66666667 <_data_lma+0x6666329f>
    2ca4:	00b50633          	add	a2,a0,a1
    2ca8:	7ac0a023          	sw	a2,1952(ra)

00002cac <inst_522>:
    2cac:	66666537          	lui	a0,0x66666
    2cb0:	66550513          	addi	a0,a0,1637 # 66666665 <_data_lma+0x6666329d>
    2cb4:	ffff55b7          	lui	a1,0xffff5
    2cb8:	afd58593          	addi	a1,a1,-1283 # ffff4afd <_data_strings+0x7ffefe35>
    2cbc:	00b50633          	add	a2,a0,a1
    2cc0:	7ac0a223          	sw	a2,1956(ra)

00002cc4 <inst_523>:
    2cc4:	66666537          	lui	a0,0x66666
    2cc8:	66550513          	addi	a0,a0,1637 # 66666665 <_data_lma+0x6666329d>
    2ccc:	0000b5b7          	lui	a1,0xb
    2cd0:	50558593          	addi	a1,a1,1285 # b505 <_data_lma+0x813d>
    2cd4:	00b50633          	add	a2,a0,a1
    2cd8:	7ac0a423          	sw	a2,1960(ra)

00002cdc <inst_524>:
    2cdc:	0000b537          	lui	a0,0xb
    2ce0:	50350513          	addi	a0,a0,1283 # b503 <_data_lma+0x813b>
    2ce4:	00300593          	li	a1,3
    2ce8:	00b50633          	add	a2,a0,a1
    2cec:	7ac0a623          	sw	a2,1964(ra)

00002cf0 <inst_525>:
    2cf0:	0000b537          	lui	a0,0xb
    2cf4:	50350513          	addi	a0,a0,1283 # b503 <_data_lma+0x813b>
    2cf8:	555555b7          	lui	a1,0x55555
    2cfc:	55558593          	addi	a1,a1,1365 # 55555555 <_data_lma+0x5555218d>
    2d00:	00b50633          	add	a2,a0,a1
    2d04:	7ac0a823          	sw	a2,1968(ra)

00002d08 <inst_526>:
    2d08:	0000b537          	lui	a0,0xb
    2d0c:	50350513          	addi	a0,a0,1283 # b503 <_data_lma+0x813b>
    2d10:	aaaab5b7          	lui	a1,0xaaaab
    2d14:	aaa58593          	addi	a1,a1,-1366 # aaaaaaaa <_data_strings+0x2aaa5de2>
    2d18:	00b50633          	add	a2,a0,a1
    2d1c:	7ac0aa23          	sw	a2,1972(ra)

00002d20 <inst_527>:
    2d20:	0000b537          	lui	a0,0xb
    2d24:	50350513          	addi	a0,a0,1283 # b503 <_data_lma+0x813b>
    2d28:	00500593          	li	a1,5
    2d2c:	00b50633          	add	a2,a0,a1
    2d30:	7ac0ac23          	sw	a2,1976(ra)

00002d34 <inst_528>:
    2d34:	0000b537          	lui	a0,0xb
    2d38:	50350513          	addi	a0,a0,1283 # b503 <_data_lma+0x813b>
    2d3c:	333335b7          	lui	a1,0x33333
    2d40:	33358593          	addi	a1,a1,819 # 33333333 <_data_lma+0x3332ff6b>
    2d44:	00b50633          	add	a2,a0,a1
    2d48:	7ac0ae23          	sw	a2,1980(ra)

00002d4c <inst_529>:
    2d4c:	0000b537          	lui	a0,0xb
    2d50:	50350513          	addi	a0,a0,1283 # b503 <_data_lma+0x813b>
    2d54:	666665b7          	lui	a1,0x66666
    2d58:	66658593          	addi	a1,a1,1638 # 66666666 <_data_lma+0x6666329e>
    2d5c:	00b50633          	add	a2,a0,a1
    2d60:	7cc0a023          	sw	a2,1984(ra)

00002d64 <inst_530>:
    2d64:	0000b537          	lui	a0,0xb
    2d68:	50350513          	addi	a0,a0,1283 # b503 <_data_lma+0x813b>
    2d6c:	ffff55b7          	lui	a1,0xffff5
    2d70:	afc58593          	addi	a1,a1,-1284 # ffff4afc <_data_strings+0x7ffefe34>
    2d74:	00b50633          	add	a2,a0,a1
    2d78:	7cc0a223          	sw	a2,1988(ra)

00002d7c <inst_531>:
    2d7c:	0000b537          	lui	a0,0xb
    2d80:	50350513          	addi	a0,a0,1283 # b503 <_data_lma+0x813b>
    2d84:	0000b5b7          	lui	a1,0xb
    2d88:	50458593          	addi	a1,a1,1284 # b504 <_data_lma+0x813c>
    2d8c:	00b50633          	add	a2,a0,a1
    2d90:	7cc0a423          	sw	a2,1992(ra)

00002d94 <inst_532>:
    2d94:	0000b537          	lui	a0,0xb
    2d98:	50350513          	addi	a0,a0,1283 # b503 <_data_lma+0x813b>
    2d9c:	00200593          	li	a1,2
    2da0:	00b50633          	add	a2,a0,a1
    2da4:	7cc0a623          	sw	a2,1996(ra)

00002da8 <inst_533>:
    2da8:	0000b537          	lui	a0,0xb
    2dac:	50350513          	addi	a0,a0,1283 # b503 <_data_lma+0x813b>
    2db0:	555555b7          	lui	a1,0x55555
    2db4:	55458593          	addi	a1,a1,1364 # 55555554 <_data_lma+0x5555218c>
    2db8:	00b50633          	add	a2,a0,a1
    2dbc:	7cc0a823          	sw	a2,2000(ra)

00002dc0 <inst_534>:
    2dc0:	0000b537          	lui	a0,0xb
    2dc4:	50350513          	addi	a0,a0,1283 # b503 <_data_lma+0x813b>
    2dc8:	00000593          	li	a1,0
    2dcc:	00b50633          	add	a2,a0,a1
    2dd0:	7cc0aa23          	sw	a2,2004(ra)

00002dd4 <inst_535>:
    2dd4:	0000b537          	lui	a0,0xb
    2dd8:	50350513          	addi	a0,a0,1283 # b503 <_data_lma+0x813b>
    2ddc:	00400593          	li	a1,4
    2de0:	00b50633          	add	a2,a0,a1
    2de4:	7cc0ac23          	sw	a2,2008(ra)

00002de8 <inst_536>:
    2de8:	0000b537          	lui	a0,0xb
    2dec:	50350513          	addi	a0,a0,1283 # b503 <_data_lma+0x813b>
    2df0:	333335b7          	lui	a1,0x33333
    2df4:	33258593          	addi	a1,a1,818 # 33333332 <_data_lma+0x3332ff6a>
    2df8:	00b50633          	add	a2,a0,a1
    2dfc:	7cc0ae23          	sw	a2,2012(ra)

00002e00 <inst_537>:
    2e00:	0000b537          	lui	a0,0xb
    2e04:	50350513          	addi	a0,a0,1283 # b503 <_data_lma+0x813b>
    2e08:	666665b7          	lui	a1,0x66666
    2e0c:	66558593          	addi	a1,a1,1637 # 66666665 <_data_lma+0x6666329d>
    2e10:	00b50633          	add	a2,a0,a1
    2e14:	7ec0a023          	sw	a2,2016(ra)

00002e18 <inst_538>:
    2e18:	0000b537          	lui	a0,0xb
    2e1c:	50350513          	addi	a0,a0,1283 # b503 <_data_lma+0x813b>
    2e20:	0000b5b7          	lui	a1,0xb
    2e24:	50358593          	addi	a1,a1,1283 # b503 <_data_lma+0x813b>
    2e28:	00b50633          	add	a2,a0,a1
    2e2c:	7ec0a223          	sw	a2,2020(ra)

00002e30 <inst_539>:
    2e30:	0000b537          	lui	a0,0xb
    2e34:	50350513          	addi	a0,a0,1283 # b503 <_data_lma+0x813b>
    2e38:	555555b7          	lui	a1,0x55555
    2e3c:	55658593          	addi	a1,a1,1366 # 55555556 <_data_lma+0x5555218e>
    2e40:	00b50633          	add	a2,a0,a1
    2e44:	7ec0a423          	sw	a2,2024(ra)

00002e48 <inst_540>:
    2e48:	0000b537          	lui	a0,0xb
    2e4c:	50350513          	addi	a0,a0,1283 # b503 <_data_lma+0x813b>
    2e50:	aaaab5b7          	lui	a1,0xaaaab
    2e54:	aab58593          	addi	a1,a1,-1365 # aaaaaaab <_data_strings+0x2aaa5de3>
    2e58:	00b50633          	add	a2,a0,a1
    2e5c:	7ec0a623          	sw	a2,2028(ra)

00002e60 <inst_541>:
    2e60:	0000b537          	lui	a0,0xb
    2e64:	50350513          	addi	a0,a0,1283 # b503 <_data_lma+0x813b>
    2e68:	00600593          	li	a1,6
    2e6c:	00b50633          	add	a2,a0,a1
    2e70:	7ec0a823          	sw	a2,2032(ra)

00002e74 <inst_542>:
    2e74:	0000b537          	lui	a0,0xb
    2e78:	50350513          	addi	a0,a0,1283 # b503 <_data_lma+0x813b>
    2e7c:	333335b7          	lui	a1,0x33333
    2e80:	33458593          	addi	a1,a1,820 # 33333334 <_data_lma+0x3332ff6c>
    2e84:	00b50633          	add	a2,a0,a1
    2e88:	7ec0aa23          	sw	a2,2036(ra)

00002e8c <inst_543>:
    2e8c:	0000b537          	lui	a0,0xb
    2e90:	50350513          	addi	a0,a0,1283 # b503 <_data_lma+0x813b>
    2e94:	666665b7          	lui	a1,0x66666
    2e98:	66758593          	addi	a1,a1,1639 # 66666667 <_data_lma+0x6666329f>
    2e9c:	00b50633          	add	a2,a0,a1
    2ea0:	7ec0ac23          	sw	a2,2040(ra)

00002ea4 <inst_544>:
    2ea4:	0000b537          	lui	a0,0xb
    2ea8:	50350513          	addi	a0,a0,1283 # b503 <_data_lma+0x813b>
    2eac:	ffff55b7          	lui	a1,0xffff5
    2eb0:	afd58593          	addi	a1,a1,-1283 # ffff4afd <_data_strings+0x7ffefe35>
    2eb4:	00b50633          	add	a2,a0,a1
    2eb8:	7ec0ae23          	sw	a2,2044(ra)
    2ebc:	7fffe097          	auipc	ra,0x7fffe
    2ec0:	bd808093          	addi	ra,ra,-1064 # 80000a94 <signature_x1_1>

00002ec4 <inst_545>:
    2ec4:	0000b537          	lui	a0,0xb
    2ec8:	50350513          	addi	a0,a0,1283 # b503 <_data_lma+0x813b>
    2ecc:	0000b5b7          	lui	a1,0xb
    2ed0:	50558593          	addi	a1,a1,1285 # b505 <_data_lma+0x813d>
    2ed4:	00b50633          	add	a2,a0,a1
    2ed8:	00c0a023          	sw	a2,0(ra)

00002edc <inst_546>:
    2edc:	55555537          	lui	a0,0x55555
    2ee0:	55650513          	addi	a0,a0,1366 # 55555556 <_data_lma+0x5555218e>
    2ee4:	00300593          	li	a1,3
    2ee8:	00b50633          	add	a2,a0,a1
    2eec:	00c0a223          	sw	a2,4(ra)

00002ef0 <inst_547>:
    2ef0:	55555537          	lui	a0,0x55555
    2ef4:	55650513          	addi	a0,a0,1366 # 55555556 <_data_lma+0x5555218e>
    2ef8:	555555b7          	lui	a1,0x55555
    2efc:	55558593          	addi	a1,a1,1365 # 55555555 <_data_lma+0x5555218d>
    2f00:	00b50633          	add	a2,a0,a1
    2f04:	00c0a423          	sw	a2,8(ra)

00002f08 <inst_548>:
    2f08:	55555537          	lui	a0,0x55555
    2f0c:	55650513          	addi	a0,a0,1366 # 55555556 <_data_lma+0x5555218e>
    2f10:	aaaab5b7          	lui	a1,0xaaaab
    2f14:	aaa58593          	addi	a1,a1,-1366 # aaaaaaaa <_data_strings+0x2aaa5de2>
    2f18:	00b50633          	add	a2,a0,a1
    2f1c:	00c0a623          	sw	a2,12(ra)

00002f20 <inst_549>:
    2f20:	55555537          	lui	a0,0x55555
    2f24:	55650513          	addi	a0,a0,1366 # 55555556 <_data_lma+0x5555218e>
    2f28:	00500593          	li	a1,5
    2f2c:	00b50633          	add	a2,a0,a1
    2f30:	00c0a823          	sw	a2,16(ra)

00002f34 <inst_550>:
    2f34:	55555537          	lui	a0,0x55555
    2f38:	55650513          	addi	a0,a0,1366 # 55555556 <_data_lma+0x5555218e>
    2f3c:	333335b7          	lui	a1,0x33333
    2f40:	33358593          	addi	a1,a1,819 # 33333333 <_data_lma+0x3332ff6b>
    2f44:	00b50633          	add	a2,a0,a1
    2f48:	00c0aa23          	sw	a2,20(ra)

00002f4c <inst_551>:
    2f4c:	55555537          	lui	a0,0x55555
    2f50:	55650513          	addi	a0,a0,1366 # 55555556 <_data_lma+0x5555218e>
    2f54:	666665b7          	lui	a1,0x66666
    2f58:	66658593          	addi	a1,a1,1638 # 66666666 <_data_lma+0x6666329e>
    2f5c:	00b50633          	add	a2,a0,a1
    2f60:	00c0ac23          	sw	a2,24(ra)

00002f64 <inst_552>:
    2f64:	55555537          	lui	a0,0x55555
    2f68:	55650513          	addi	a0,a0,1366 # 55555556 <_data_lma+0x5555218e>
    2f6c:	ffff55b7          	lui	a1,0xffff5
    2f70:	afc58593          	addi	a1,a1,-1284 # ffff4afc <_data_strings+0x7ffefe34>
    2f74:	00b50633          	add	a2,a0,a1
    2f78:	00c0ae23          	sw	a2,28(ra)

00002f7c <inst_553>:
    2f7c:	55555537          	lui	a0,0x55555
    2f80:	55650513          	addi	a0,a0,1366 # 55555556 <_data_lma+0x5555218e>
    2f84:	0000b5b7          	lui	a1,0xb
    2f88:	50458593          	addi	a1,a1,1284 # b504 <_data_lma+0x813c>
    2f8c:	00b50633          	add	a2,a0,a1
    2f90:	02c0a023          	sw	a2,32(ra)

00002f94 <inst_554>:
    2f94:	55555537          	lui	a0,0x55555
    2f98:	55650513          	addi	a0,a0,1366 # 55555556 <_data_lma+0x5555218e>
    2f9c:	00200593          	li	a1,2
    2fa0:	00b50633          	add	a2,a0,a1
    2fa4:	02c0a223          	sw	a2,36(ra)

00002fa8 <inst_555>:
    2fa8:	55555537          	lui	a0,0x55555
    2fac:	55650513          	addi	a0,a0,1366 # 55555556 <_data_lma+0x5555218e>
    2fb0:	555555b7          	lui	a1,0x55555
    2fb4:	55458593          	addi	a1,a1,1364 # 55555554 <_data_lma+0x5555218c>
    2fb8:	00b50633          	add	a2,a0,a1
    2fbc:	02c0a423          	sw	a2,40(ra)

00002fc0 <inst_556>:
    2fc0:	55555537          	lui	a0,0x55555
    2fc4:	55650513          	addi	a0,a0,1366 # 55555556 <_data_lma+0x5555218e>
    2fc8:	00000593          	li	a1,0
    2fcc:	00b50633          	add	a2,a0,a1
    2fd0:	02c0a623          	sw	a2,44(ra)

00002fd4 <inst_557>:
    2fd4:	55555537          	lui	a0,0x55555
    2fd8:	55650513          	addi	a0,a0,1366 # 55555556 <_data_lma+0x5555218e>
    2fdc:	00400593          	li	a1,4
    2fe0:	00b50633          	add	a2,a0,a1
    2fe4:	02c0a823          	sw	a2,48(ra)

00002fe8 <inst_558>:
    2fe8:	55555537          	lui	a0,0x55555
    2fec:	55650513          	addi	a0,a0,1366 # 55555556 <_data_lma+0x5555218e>
    2ff0:	333335b7          	lui	a1,0x33333
    2ff4:	33258593          	addi	a1,a1,818 # 33333332 <_data_lma+0x3332ff6a>
    2ff8:	00b50633          	add	a2,a0,a1
    2ffc:	02c0aa23          	sw	a2,52(ra)

00003000 <inst_559>:
    3000:	55555537          	lui	a0,0x55555
    3004:	55650513          	addi	a0,a0,1366 # 55555556 <_data_lma+0x5555218e>
    3008:	666665b7          	lui	a1,0x66666
    300c:	66558593          	addi	a1,a1,1637 # 66666665 <_data_lma+0x6666329d>
    3010:	00b50633          	add	a2,a0,a1
    3014:	02c0ac23          	sw	a2,56(ra)

00003018 <inst_560>:
    3018:	55555537          	lui	a0,0x55555
    301c:	55650513          	addi	a0,a0,1366 # 55555556 <_data_lma+0x5555218e>
    3020:	0000b5b7          	lui	a1,0xb
    3024:	50358593          	addi	a1,a1,1283 # b503 <_data_lma+0x813b>
    3028:	00b50633          	add	a2,a0,a1
    302c:	02c0ae23          	sw	a2,60(ra)

00003030 <inst_561>:
    3030:	55555537          	lui	a0,0x55555
    3034:	55650513          	addi	a0,a0,1366 # 55555556 <_data_lma+0x5555218e>
    3038:	aaaab5b7          	lui	a1,0xaaaab
    303c:	aab58593          	addi	a1,a1,-1365 # aaaaaaab <_data_strings+0x2aaa5de3>
    3040:	00b50633          	add	a2,a0,a1
    3044:	04c0a023          	sw	a2,64(ra)

00003048 <inst_562>:
    3048:	55555537          	lui	a0,0x55555
    304c:	55650513          	addi	a0,a0,1366 # 55555556 <_data_lma+0x5555218e>
    3050:	00600593          	li	a1,6
    3054:	00b50633          	add	a2,a0,a1
    3058:	04c0a223          	sw	a2,68(ra)

0000305c <inst_563>:
    305c:	55555537          	lui	a0,0x55555
    3060:	55650513          	addi	a0,a0,1366 # 55555556 <_data_lma+0x5555218e>
    3064:	333335b7          	lui	a1,0x33333
    3068:	33458593          	addi	a1,a1,820 # 33333334 <_data_lma+0x3332ff6c>
    306c:	00b50633          	add	a2,a0,a1
    3070:	04c0a423          	sw	a2,72(ra)

00003074 <inst_564>:
    3074:	55555537          	lui	a0,0x55555
    3078:	55650513          	addi	a0,a0,1366 # 55555556 <_data_lma+0x5555218e>
    307c:	666665b7          	lui	a1,0x66666
    3080:	66758593          	addi	a1,a1,1639 # 66666667 <_data_lma+0x6666329f>
    3084:	00b50633          	add	a2,a0,a1
    3088:	04c0a623          	sw	a2,76(ra)

0000308c <inst_565>:
    308c:	55555537          	lui	a0,0x55555
    3090:	55650513          	addi	a0,a0,1366 # 55555556 <_data_lma+0x5555218e>
    3094:	ffff55b7          	lui	a1,0xffff5
    3098:	afd58593          	addi	a1,a1,-1283 # ffff4afd <_data_strings+0x7ffefe35>
    309c:	00b50633          	add	a2,a0,a1
    30a0:	04c0a823          	sw	a2,80(ra)

000030a4 <inst_566>:
    30a4:	55555537          	lui	a0,0x55555
    30a8:	55650513          	addi	a0,a0,1366 # 55555556 <_data_lma+0x5555218e>
    30ac:	0000b5b7          	lui	a1,0xb
    30b0:	50558593          	addi	a1,a1,1285 # b505 <_data_lma+0x813d>
    30b4:	00b50633          	add	a2,a0,a1
    30b8:	04c0aa23          	sw	a2,84(ra)

000030bc <inst_567>:
    30bc:	aaaab537          	lui	a0,0xaaaab
    30c0:	aab50513          	addi	a0,a0,-1365 # aaaaaaab <_data_strings+0x2aaa5de3>
    30c4:	00300593          	li	a1,3
    30c8:	00b50633          	add	a2,a0,a1
    30cc:	04c0ac23          	sw	a2,88(ra)

000030d0 <inst_568>:
    30d0:	aaaab537          	lui	a0,0xaaaab
    30d4:	aab50513          	addi	a0,a0,-1365 # aaaaaaab <_data_strings+0x2aaa5de3>
    30d8:	555555b7          	lui	a1,0x55555
    30dc:	55558593          	addi	a1,a1,1365 # 55555555 <_data_lma+0x5555218d>
    30e0:	00b50633          	add	a2,a0,a1
    30e4:	04c0ae23          	sw	a2,92(ra)

000030e8 <inst_569>:
    30e8:	aaaab537          	lui	a0,0xaaaab
    30ec:	aab50513          	addi	a0,a0,-1365 # aaaaaaab <_data_strings+0x2aaa5de3>
    30f0:	aaaab5b7          	lui	a1,0xaaaab
    30f4:	aaa58593          	addi	a1,a1,-1366 # aaaaaaaa <_data_strings+0x2aaa5de2>
    30f8:	00b50633          	add	a2,a0,a1
    30fc:	06c0a023          	sw	a2,96(ra)

00003100 <inst_570>:
    3100:	aaaab537          	lui	a0,0xaaaab
    3104:	aab50513          	addi	a0,a0,-1365 # aaaaaaab <_data_strings+0x2aaa5de3>
    3108:	00500593          	li	a1,5
    310c:	00b50633          	add	a2,a0,a1
    3110:	06c0a223          	sw	a2,100(ra)

00003114 <inst_571>:
    3114:	aaaab537          	lui	a0,0xaaaab
    3118:	aab50513          	addi	a0,a0,-1365 # aaaaaaab <_data_strings+0x2aaa5de3>
    311c:	333335b7          	lui	a1,0x33333
    3120:	33358593          	addi	a1,a1,819 # 33333333 <_data_lma+0x3332ff6b>
    3124:	00b50633          	add	a2,a0,a1
    3128:	06c0a423          	sw	a2,104(ra)

0000312c <inst_572>:
    312c:	aaaab537          	lui	a0,0xaaaab
    3130:	aab50513          	addi	a0,a0,-1365 # aaaaaaab <_data_strings+0x2aaa5de3>
    3134:	666665b7          	lui	a1,0x66666
    3138:	66658593          	addi	a1,a1,1638 # 66666666 <_data_lma+0x6666329e>
    313c:	00b50633          	add	a2,a0,a1
    3140:	06c0a623          	sw	a2,108(ra)

00003144 <inst_573>:
    3144:	aaaab537          	lui	a0,0xaaaab
    3148:	aab50513          	addi	a0,a0,-1365 # aaaaaaab <_data_strings+0x2aaa5de3>
    314c:	ffff55b7          	lui	a1,0xffff5
    3150:	afc58593          	addi	a1,a1,-1284 # ffff4afc <_data_strings+0x7ffefe34>
    3154:	00b50633          	add	a2,a0,a1
    3158:	06c0a823          	sw	a2,112(ra)

0000315c <inst_574>:
    315c:	aaaab537          	lui	a0,0xaaaab
    3160:	aab50513          	addi	a0,a0,-1365 # aaaaaaab <_data_strings+0x2aaa5de3>
    3164:	0000b5b7          	lui	a1,0xb
    3168:	50458593          	addi	a1,a1,1284 # b504 <_data_lma+0x813c>
    316c:	00b50633          	add	a2,a0,a1
    3170:	06c0aa23          	sw	a2,116(ra)

00003174 <inst_575>:
    3174:	aaaab537          	lui	a0,0xaaaab
    3178:	aab50513          	addi	a0,a0,-1365 # aaaaaaab <_data_strings+0x2aaa5de3>
    317c:	00200593          	li	a1,2
    3180:	00b50633          	add	a2,a0,a1
    3184:	06c0ac23          	sw	a2,120(ra)

00003188 <inst_576>:
    3188:	aaaab537          	lui	a0,0xaaaab
    318c:	aab50513          	addi	a0,a0,-1365 # aaaaaaab <_data_strings+0x2aaa5de3>
    3190:	555555b7          	lui	a1,0x55555
    3194:	55458593          	addi	a1,a1,1364 # 55555554 <_data_lma+0x5555218c>
    3198:	00b50633          	add	a2,a0,a1
    319c:	06c0ae23          	sw	a2,124(ra)

000031a0 <inst_577>:
    31a0:	aaaab537          	lui	a0,0xaaaab
    31a4:	aab50513          	addi	a0,a0,-1365 # aaaaaaab <_data_strings+0x2aaa5de3>
    31a8:	00000593          	li	a1,0
    31ac:	00b50633          	add	a2,a0,a1
    31b0:	08c0a023          	sw	a2,128(ra)

000031b4 <inst_578>:
    31b4:	aaaab537          	lui	a0,0xaaaab
    31b8:	aab50513          	addi	a0,a0,-1365 # aaaaaaab <_data_strings+0x2aaa5de3>
    31bc:	00400593          	li	a1,4
    31c0:	00b50633          	add	a2,a0,a1
    31c4:	08c0a223          	sw	a2,132(ra)

000031c8 <inst_579>:
    31c8:	aaaab537          	lui	a0,0xaaaab
    31cc:	aab50513          	addi	a0,a0,-1365 # aaaaaaab <_data_strings+0x2aaa5de3>
    31d0:	333335b7          	lui	a1,0x33333
    31d4:	33258593          	addi	a1,a1,818 # 33333332 <_data_lma+0x3332ff6a>
    31d8:	00b50633          	add	a2,a0,a1
    31dc:	08c0a423          	sw	a2,136(ra)

000031e0 <inst_580>:
    31e0:	aaaab537          	lui	a0,0xaaaab
    31e4:	aab50513          	addi	a0,a0,-1365 # aaaaaaab <_data_strings+0x2aaa5de3>
    31e8:	666665b7          	lui	a1,0x66666
    31ec:	66558593          	addi	a1,a1,1637 # 66666665 <_data_lma+0x6666329d>
    31f0:	00b50633          	add	a2,a0,a1
    31f4:	08c0a623          	sw	a2,140(ra)

000031f8 <inst_581>:
    31f8:	aaaab537          	lui	a0,0xaaaab
    31fc:	aab50513          	addi	a0,a0,-1365 # aaaaaaab <_data_strings+0x2aaa5de3>
    3200:	0000b5b7          	lui	a1,0xb
    3204:	50358593          	addi	a1,a1,1283 # b503 <_data_lma+0x813b>
    3208:	00b50633          	add	a2,a0,a1
    320c:	08c0a823          	sw	a2,144(ra)

00003210 <inst_582>:
    3210:	aaaab537          	lui	a0,0xaaaab
    3214:	aab50513          	addi	a0,a0,-1365 # aaaaaaab <_data_strings+0x2aaa5de3>
    3218:	555555b7          	lui	a1,0x55555
    321c:	55658593          	addi	a1,a1,1366 # 55555556 <_data_lma+0x5555218e>
    3220:	00b50633          	add	a2,a0,a1
    3224:	08c0aa23          	sw	a2,148(ra)

00003228 <inst_583>:
    3228:	00020537          	lui	a0,0x20
    322c:	eff00593          	li	a1,-257
    3230:	00b50633          	add	a2,a0,a1
    3234:	08c0ac23          	sw	a2,152(ra)

00003238 <inst_584>:
    3238:	ff000537          	lui	a0,0xff000
    323c:	fff50513          	addi	a0,a0,-1 # feffffff <_data_strings+0x7effb337>
    3240:	ff900593          	li	a1,-7
    3244:	00b50633          	add	a2,a0,a1
    3248:	08c0ae23          	sw	a2,156(ra)

0000324c <inst_585>:
    324c:	00100513          	li	a0,1
    3250:	008005b7          	lui	a1,0x800
    3254:	00b50633          	add	a2,a0,a1
    3258:	0ac0a023          	sw	a2,160(ra)

0000325c <inst_586>:
    325c:	ffff5537          	lui	a0,0xffff5
    3260:	afc50513          	addi	a0,a0,-1284 # ffff4afc <_data_strings+0x7ffefe34>
    3264:	40000593          	li	a1,1024
    3268:	00b50633          	add	a2,a0,a1
    326c:	0ac0a223          	sw	a2,164(ra)

00003270 <inst_587>:
    3270:	00400513          	li	a0,4
    3274:	000015b7          	lui	a1,0x1
    3278:	00b50633          	add	a2,a0,a1
    327c:	0ac0a423          	sw	a2,168(ra)

00003280 <rvtest_code_end>:
    3280:	7fffd297          	auipc	t0,0x7fffd
    3284:	f9028293          	addi	t0,t0,-112 # 80000210 <begin_signature>
    3288:	80020337          	lui	t1,0x80020
    328c:	00430313          	addi	t1,t1,4 # 80020004 <_data_strings+0x1b33c>
    3290:	00532023          	sw	t0,0(t1)
    3294:	7fffe297          	auipc	t0,0x7fffe
    3298:	8ac28293          	addi	t0,t0,-1876 # 80000b40 <end_signature>
    329c:	80020337          	lui	t1,0x80020
    32a0:	00830313          	addi	t1,t1,8 # 80020008 <_data_strings+0x1b340>
    32a4:	00532023          	sw	t0,0(t1)
    32a8:	00100293          	li	t0,1
    32ac:	80020337          	lui	t1,0x80020
    32b0:	00532023          	sw	t0,0(t1) # 80020000 <_data_strings+0x1b338>
    32b4:	00100073          	ebreak
	...

Disassembly of section .tohost:

80000000 <tohost>:
	...

80000100 <fromhost>:
	...
